   1              	 .syntax unified
   2              	 .cpu cortex-m4
   3              	 .eabi_attribute 27,3
   4              	 .fpu fpv4-sp-d16
   5              	 .eabi_attribute 20,1
   6              	 .eabi_attribute 21,1
   7              	 .eabi_attribute 23,3
   8              	 .eabi_attribute 24,1
   9              	 .eabi_attribute 25,1
  10              	 .eabi_attribute 26,1
  11              	 .eabi_attribute 30,6
  12              	 .eabi_attribute 34,1
  13              	 .eabi_attribute 18,4
  14              	 .thumb
  15              	 .file "BMI.c"
  16              	 .text
  17              	.Ltext0:
  18              	 .cfi_sections .debug_frame
  19              	 .section .text.XMC_GPIO_SetOutputHigh,"ax",%progbits
  20              	 .align 2
  21              	 .thumb
  22              	 .thumb_func
  24              	XMC_GPIO_SetOutputHigh:
  25              	.LFB180:
  26              	 .file 1 "D:/Users/Beheerder/Desktop/GPSBox/SensorMaritime-SensorBox/Sensorbox_firmware/GPSGyroAnalysisTool/GpsGyroAnalysisTool/GpsGyroAnalysisTool/Libraries/XMCLib/inc/xmc_gpio.h"
   1:D:/Users/Beheerder/Desktop/GPSBox/SensorMaritime-SensorBox/Sensorbox_firmware/GPSGyroAnalysisTool/GpsGyroAnalysisTool/GpsGyroAnalysisTool/Libraries/XMCLib/inc\xmc_gpio.h **** /**
   2:D:/Users/Beheerder/Desktop/GPSBox/SensorMaritime-SensorBox/Sensorbox_firmware/GPSGyroAnalysisTool/GpsGyroAnalysisTool/GpsGyroAnalysisTool/Libraries/XMCLib/inc\xmc_gpio.h ****  * @file xmc_gpio.h
   3:D:/Users/Beheerder/Desktop/GPSBox/SensorMaritime-SensorBox/Sensorbox_firmware/GPSGyroAnalysisTool/GpsGyroAnalysisTool/GpsGyroAnalysisTool/Libraries/XMCLib/inc\xmc_gpio.h ****  * @date 2015-06-20
   4:D:/Users/Beheerder/Desktop/GPSBox/SensorMaritime-SensorBox/Sensorbox_firmware/GPSGyroAnalysisTool/GpsGyroAnalysisTool/GpsGyroAnalysisTool/Libraries/XMCLib/inc\xmc_gpio.h ****  *
   5:D:/Users/Beheerder/Desktop/GPSBox/SensorMaritime-SensorBox/Sensorbox_firmware/GPSGyroAnalysisTool/GpsGyroAnalysisTool/GpsGyroAnalysisTool/Libraries/XMCLib/inc\xmc_gpio.h ****  * @cond
   6:D:/Users/Beheerder/Desktop/GPSBox/SensorMaritime-SensorBox/Sensorbox_firmware/GPSGyroAnalysisTool/GpsGyroAnalysisTool/GpsGyroAnalysisTool/Libraries/XMCLib/inc\xmc_gpio.h ****  **************************************************************************************************
   7:D:/Users/Beheerder/Desktop/GPSBox/SensorMaritime-SensorBox/Sensorbox_firmware/GPSGyroAnalysisTool/GpsGyroAnalysisTool/GpsGyroAnalysisTool/Libraries/XMCLib/inc\xmc_gpio.h ****  * XMClib v2.1.24 - XMC Peripheral Driver Library 
   8:D:/Users/Beheerder/Desktop/GPSBox/SensorMaritime-SensorBox/Sensorbox_firmware/GPSGyroAnalysisTool/GpsGyroAnalysisTool/GpsGyroAnalysisTool/Libraries/XMCLib/inc\xmc_gpio.h ****  *
   9:D:/Users/Beheerder/Desktop/GPSBox/SensorMaritime-SensorBox/Sensorbox_firmware/GPSGyroAnalysisTool/GpsGyroAnalysisTool/GpsGyroAnalysisTool/Libraries/XMCLib/inc\xmc_gpio.h ****  * Copyright (c) 2015-2019, Infineon Technologies AG
  10:D:/Users/Beheerder/Desktop/GPSBox/SensorMaritime-SensorBox/Sensorbox_firmware/GPSGyroAnalysisTool/GpsGyroAnalysisTool/GpsGyroAnalysisTool/Libraries/XMCLib/inc\xmc_gpio.h ****  * All rights reserved.                        
  11:D:/Users/Beheerder/Desktop/GPSBox/SensorMaritime-SensorBox/Sensorbox_firmware/GPSGyroAnalysisTool/GpsGyroAnalysisTool/GpsGyroAnalysisTool/Libraries/XMCLib/inc\xmc_gpio.h ****  *                                             
  12:D:/Users/Beheerder/Desktop/GPSBox/SensorMaritime-SensorBox/Sensorbox_firmware/GPSGyroAnalysisTool/GpsGyroAnalysisTool/GpsGyroAnalysisTool/Libraries/XMCLib/inc\xmc_gpio.h ****  * Redistribution and use in source and binary forms, with or without modification,are permitted pr
  13:D:/Users/Beheerder/Desktop/GPSBox/SensorMaritime-SensorBox/Sensorbox_firmware/GPSGyroAnalysisTool/GpsGyroAnalysisTool/GpsGyroAnalysisTool/Libraries/XMCLib/inc\xmc_gpio.h ****  * following conditions are met:   
  14:D:/Users/Beheerder/Desktop/GPSBox/SensorMaritime-SensorBox/Sensorbox_firmware/GPSGyroAnalysisTool/GpsGyroAnalysisTool/GpsGyroAnalysisTool/Libraries/XMCLib/inc\xmc_gpio.h ****  *                                                                              
  15:D:/Users/Beheerder/Desktop/GPSBox/SensorMaritime-SensorBox/Sensorbox_firmware/GPSGyroAnalysisTool/GpsGyroAnalysisTool/GpsGyroAnalysisTool/Libraries/XMCLib/inc\xmc_gpio.h ****  * Redistributions of source code must retain the above copyright notice, this list of conditions a
  16:D:/Users/Beheerder/Desktop/GPSBox/SensorMaritime-SensorBox/Sensorbox_firmware/GPSGyroAnalysisTool/GpsGyroAnalysisTool/GpsGyroAnalysisTool/Libraries/XMCLib/inc\xmc_gpio.h ****  * disclaimer.                        
  17:D:/Users/Beheerder/Desktop/GPSBox/SensorMaritime-SensorBox/Sensorbox_firmware/GPSGyroAnalysisTool/GpsGyroAnalysisTool/GpsGyroAnalysisTool/Libraries/XMCLib/inc\xmc_gpio.h ****  * 
  18:D:/Users/Beheerder/Desktop/GPSBox/SensorMaritime-SensorBox/Sensorbox_firmware/GPSGyroAnalysisTool/GpsGyroAnalysisTool/GpsGyroAnalysisTool/Libraries/XMCLib/inc\xmc_gpio.h ****  * Redistributions in binary form must reproduce the above copyright notice, this list of condition
  19:D:/Users/Beheerder/Desktop/GPSBox/SensorMaritime-SensorBox/Sensorbox_firmware/GPSGyroAnalysisTool/GpsGyroAnalysisTool/GpsGyroAnalysisTool/Libraries/XMCLib/inc\xmc_gpio.h ****  * disclaimer in the documentation and/or other materials provided with the distribution.          
  20:D:/Users/Beheerder/Desktop/GPSBox/SensorMaritime-SensorBox/Sensorbox_firmware/GPSGyroAnalysisTool/GpsGyroAnalysisTool/GpsGyroAnalysisTool/Libraries/XMCLib/inc\xmc_gpio.h ****  * 
  21:D:/Users/Beheerder/Desktop/GPSBox/SensorMaritime-SensorBox/Sensorbox_firmware/GPSGyroAnalysisTool/GpsGyroAnalysisTool/GpsGyroAnalysisTool/Libraries/XMCLib/inc\xmc_gpio.h ****  * Neither the name of the copyright holders nor the names of its contributors may be used to endor
  22:D:/Users/Beheerder/Desktop/GPSBox/SensorMaritime-SensorBox/Sensorbox_firmware/GPSGyroAnalysisTool/GpsGyroAnalysisTool/GpsGyroAnalysisTool/Libraries/XMCLib/inc\xmc_gpio.h ****  * products derived from this software without specific prior written permission.                  
  23:D:/Users/Beheerder/Desktop/GPSBox/SensorMaritime-SensorBox/Sensorbox_firmware/GPSGyroAnalysisTool/GpsGyroAnalysisTool/GpsGyroAnalysisTool/Libraries/XMCLib/inc\xmc_gpio.h ****  *                                                                              
  24:D:/Users/Beheerder/Desktop/GPSBox/SensorMaritime-SensorBox/Sensorbox_firmware/GPSGyroAnalysisTool/GpsGyroAnalysisTool/GpsGyroAnalysisTool/Libraries/XMCLib/inc\xmc_gpio.h ****  * THIS SOFTWARE IS PROVIDED BY THE COPYRIGHT HOLDERS AND CONTRIBUTORS "AS IS" AND ANY EXPRESS OR I
  25:D:/Users/Beheerder/Desktop/GPSBox/SensorMaritime-SensorBox/Sensorbox_firmware/GPSGyroAnalysisTool/GpsGyroAnalysisTool/GpsGyroAnalysisTool/Libraries/XMCLib/inc\xmc_gpio.h ****  * INCLUDING, BUT NOT LIMITED TO, THE IMPLIED WARRANTIES OF MERCHANTABILITY AND FITNESS FOR A PARTI
  26:D:/Users/Beheerder/Desktop/GPSBox/SensorMaritime-SensorBox/Sensorbox_firmware/GPSGyroAnalysisTool/GpsGyroAnalysisTool/GpsGyroAnalysisTool/Libraries/XMCLib/inc\xmc_gpio.h ****  * DISCLAIMED. IN NO EVENT SHALL THE COPYRIGHT HOLDER OR CONTRIBUTORS BE LIABLE  FOR ANY DIRECT, IN
  27:D:/Users/Beheerder/Desktop/GPSBox/SensorMaritime-SensorBox/Sensorbox_firmware/GPSGyroAnalysisTool/GpsGyroAnalysisTool/GpsGyroAnalysisTool/Libraries/XMCLib/inc\xmc_gpio.h ****  * SPECIAL, EXEMPLARY, OR CONSEQUENTIAL DAMAGES (INCLUDING, BUT NOT LIMITED TO, PROCUREMENT OF SUBS
  28:D:/Users/Beheerder/Desktop/GPSBox/SensorMaritime-SensorBox/Sensorbox_firmware/GPSGyroAnalysisTool/GpsGyroAnalysisTool/GpsGyroAnalysisTool/Libraries/XMCLib/inc\xmc_gpio.h ****  * SERVICES; LOSS OF USE, DATA, OR PROFITS; OR BUSINESS INTERRUPTION) HOWEVER CAUSED AND ON ANY THE
  29:D:/Users/Beheerder/Desktop/GPSBox/SensorMaritime-SensorBox/Sensorbox_firmware/GPSGyroAnalysisTool/GpsGyroAnalysisTool/GpsGyroAnalysisTool/Libraries/XMCLib/inc\xmc_gpio.h ****  * WHETHER IN CONTRACT, STRICT LIABILITY,OR TORT (INCLUDING NEGLIGENCE OR OTHERWISE) ARISING IN ANY
  30:D:/Users/Beheerder/Desktop/GPSBox/SensorMaritime-SensorBox/Sensorbox_firmware/GPSGyroAnalysisTool/GpsGyroAnalysisTool/GpsGyroAnalysisTool/Libraries/XMCLib/inc\xmc_gpio.h ****  * OF THIS SOFTWARE, EVEN IF ADVISED OF THE POSSIBILITY OF SUCH DAMAGE.                            
  31:D:/Users/Beheerder/Desktop/GPSBox/SensorMaritime-SensorBox/Sensorbox_firmware/GPSGyroAnalysisTool/GpsGyroAnalysisTool/GpsGyroAnalysisTool/Libraries/XMCLib/inc\xmc_gpio.h ****  *                                                                              
  32:D:/Users/Beheerder/Desktop/GPSBox/SensorMaritime-SensorBox/Sensorbox_firmware/GPSGyroAnalysisTool/GpsGyroAnalysisTool/GpsGyroAnalysisTool/Libraries/XMCLib/inc\xmc_gpio.h ****  * To improve the quality of the software, users are encouraged to share modifications, enhancement
  33:D:/Users/Beheerder/Desktop/GPSBox/SensorMaritime-SensorBox/Sensorbox_firmware/GPSGyroAnalysisTool/GpsGyroAnalysisTool/GpsGyroAnalysisTool/Libraries/XMCLib/inc\xmc_gpio.h ****  * Infineon Technologies AG dave@infineon.com).                                                    
  34:D:/Users/Beheerder/Desktop/GPSBox/SensorMaritime-SensorBox/Sensorbox_firmware/GPSGyroAnalysisTool/GpsGyroAnalysisTool/GpsGyroAnalysisTool/Libraries/XMCLib/inc\xmc_gpio.h ****  **************************************************************************************************
  35:D:/Users/Beheerder/Desktop/GPSBox/SensorMaritime-SensorBox/Sensorbox_firmware/GPSGyroAnalysisTool/GpsGyroAnalysisTool/GpsGyroAnalysisTool/Libraries/XMCLib/inc\xmc_gpio.h ****  *
  36:D:/Users/Beheerder/Desktop/GPSBox/SensorMaritime-SensorBox/Sensorbox_firmware/GPSGyroAnalysisTool/GpsGyroAnalysisTool/GpsGyroAnalysisTool/Libraries/XMCLib/inc\xmc_gpio.h ****  * Change History
  37:D:/Users/Beheerder/Desktop/GPSBox/SensorMaritime-SensorBox/Sensorbox_firmware/GPSGyroAnalysisTool/GpsGyroAnalysisTool/GpsGyroAnalysisTool/Libraries/XMCLib/inc\xmc_gpio.h ****  * --------------
  38:D:/Users/Beheerder/Desktop/GPSBox/SensorMaritime-SensorBox/Sensorbox_firmware/GPSGyroAnalysisTool/GpsGyroAnalysisTool/GpsGyroAnalysisTool/Libraries/XMCLib/inc\xmc_gpio.h ****  *
  39:D:/Users/Beheerder/Desktop/GPSBox/SensorMaritime-SensorBox/Sensorbox_firmware/GPSGyroAnalysisTool/GpsGyroAnalysisTool/GpsGyroAnalysisTool/Libraries/XMCLib/inc\xmc_gpio.h ****  * 2015-02-20:
  40:D:/Users/Beheerder/Desktop/GPSBox/SensorMaritime-SensorBox/Sensorbox_firmware/GPSGyroAnalysisTool/GpsGyroAnalysisTool/GpsGyroAnalysisTool/Libraries/XMCLib/inc\xmc_gpio.h ****  *     - Initial draft<br>
  41:D:/Users/Beheerder/Desktop/GPSBox/SensorMaritime-SensorBox/Sensorbox_firmware/GPSGyroAnalysisTool/GpsGyroAnalysisTool/GpsGyroAnalysisTool/Libraries/XMCLib/inc\xmc_gpio.h ****  *     - Documentation improved <br>
  42:D:/Users/Beheerder/Desktop/GPSBox/SensorMaritime-SensorBox/Sensorbox_firmware/GPSGyroAnalysisTool/GpsGyroAnalysisTool/GpsGyroAnalysisTool/Libraries/XMCLib/inc\xmc_gpio.h ****  *      
  43:D:/Users/Beheerder/Desktop/GPSBox/SensorMaritime-SensorBox/Sensorbox_firmware/GPSGyroAnalysisTool/GpsGyroAnalysisTool/GpsGyroAnalysisTool/Libraries/XMCLib/inc\xmc_gpio.h ****  * 2015-06-20:
  44:D:/Users/Beheerder/Desktop/GPSBox/SensorMaritime-SensorBox/Sensorbox_firmware/GPSGyroAnalysisTool/GpsGyroAnalysisTool/GpsGyroAnalysisTool/Libraries/XMCLib/inc\xmc_gpio.h ****  *     - Removed version macros and declaration of GetDriverVersion API
  45:D:/Users/Beheerder/Desktop/GPSBox/SensorMaritime-SensorBox/Sensorbox_firmware/GPSGyroAnalysisTool/GpsGyroAnalysisTool/GpsGyroAnalysisTool/Libraries/XMCLib/inc\xmc_gpio.h ****  *
  46:D:/Users/Beheerder/Desktop/GPSBox/SensorMaritime-SensorBox/Sensorbox_firmware/GPSGyroAnalysisTool/GpsGyroAnalysisTool/GpsGyroAnalysisTool/Libraries/XMCLib/inc\xmc_gpio.h ****  * @endcond
  47:D:/Users/Beheerder/Desktop/GPSBox/SensorMaritime-SensorBox/Sensorbox_firmware/GPSGyroAnalysisTool/GpsGyroAnalysisTool/GpsGyroAnalysisTool/Libraries/XMCLib/inc\xmc_gpio.h ****  *
  48:D:/Users/Beheerder/Desktop/GPSBox/SensorMaritime-SensorBox/Sensorbox_firmware/GPSGyroAnalysisTool/GpsGyroAnalysisTool/GpsGyroAnalysisTool/Libraries/XMCLib/inc\xmc_gpio.h ****  */
  49:D:/Users/Beheerder/Desktop/GPSBox/SensorMaritime-SensorBox/Sensorbox_firmware/GPSGyroAnalysisTool/GpsGyroAnalysisTool/GpsGyroAnalysisTool/Libraries/XMCLib/inc\xmc_gpio.h **** 
  50:D:/Users/Beheerder/Desktop/GPSBox/SensorMaritime-SensorBox/Sensorbox_firmware/GPSGyroAnalysisTool/GpsGyroAnalysisTool/GpsGyroAnalysisTool/Libraries/XMCLib/inc\xmc_gpio.h **** #ifndef XMC_GPIO_H
  51:D:/Users/Beheerder/Desktop/GPSBox/SensorMaritime-SensorBox/Sensorbox_firmware/GPSGyroAnalysisTool/GpsGyroAnalysisTool/GpsGyroAnalysisTool/Libraries/XMCLib/inc\xmc_gpio.h **** #define XMC_GPIO_H
  52:D:/Users/Beheerder/Desktop/GPSBox/SensorMaritime-SensorBox/Sensorbox_firmware/GPSGyroAnalysisTool/GpsGyroAnalysisTool/GpsGyroAnalysisTool/Libraries/XMCLib/inc\xmc_gpio.h **** 
  53:D:/Users/Beheerder/Desktop/GPSBox/SensorMaritime-SensorBox/Sensorbox_firmware/GPSGyroAnalysisTool/GpsGyroAnalysisTool/GpsGyroAnalysisTool/Libraries/XMCLib/inc\xmc_gpio.h **** /**************************************************************************************************
  54:D:/Users/Beheerder/Desktop/GPSBox/SensorMaritime-SensorBox/Sensorbox_firmware/GPSGyroAnalysisTool/GpsGyroAnalysisTool/GpsGyroAnalysisTool/Libraries/XMCLib/inc\xmc_gpio.h ****  * HEADER FILES
  55:D:/Users/Beheerder/Desktop/GPSBox/SensorMaritime-SensorBox/Sensorbox_firmware/GPSGyroAnalysisTool/GpsGyroAnalysisTool/GpsGyroAnalysisTool/Libraries/XMCLib/inc\xmc_gpio.h ****  **************************************************************************************************
  56:D:/Users/Beheerder/Desktop/GPSBox/SensorMaritime-SensorBox/Sensorbox_firmware/GPSGyroAnalysisTool/GpsGyroAnalysisTool/GpsGyroAnalysisTool/Libraries/XMCLib/inc\xmc_gpio.h **** 
  57:D:/Users/Beheerder/Desktop/GPSBox/SensorMaritime-SensorBox/Sensorbox_firmware/GPSGyroAnalysisTool/GpsGyroAnalysisTool/GpsGyroAnalysisTool/Libraries/XMCLib/inc\xmc_gpio.h **** #include "xmc_common.h"
  58:D:/Users/Beheerder/Desktop/GPSBox/SensorMaritime-SensorBox/Sensorbox_firmware/GPSGyroAnalysisTool/GpsGyroAnalysisTool/GpsGyroAnalysisTool/Libraries/XMCLib/inc\xmc_gpio.h **** 
  59:D:/Users/Beheerder/Desktop/GPSBox/SensorMaritime-SensorBox/Sensorbox_firmware/GPSGyroAnalysisTool/GpsGyroAnalysisTool/GpsGyroAnalysisTool/Libraries/XMCLib/inc\xmc_gpio.h **** /**
  60:D:/Users/Beheerder/Desktop/GPSBox/SensorMaritime-SensorBox/Sensorbox_firmware/GPSGyroAnalysisTool/GpsGyroAnalysisTool/GpsGyroAnalysisTool/Libraries/XMCLib/inc\xmc_gpio.h ****  * @addtogroup XMClib XMC Peripheral Library
  61:D:/Users/Beheerder/Desktop/GPSBox/SensorMaritime-SensorBox/Sensorbox_firmware/GPSGyroAnalysisTool/GpsGyroAnalysisTool/GpsGyroAnalysisTool/Libraries/XMCLib/inc\xmc_gpio.h ****  * @{
  62:D:/Users/Beheerder/Desktop/GPSBox/SensorMaritime-SensorBox/Sensorbox_firmware/GPSGyroAnalysisTool/GpsGyroAnalysisTool/GpsGyroAnalysisTool/Libraries/XMCLib/inc\xmc_gpio.h ****  */
  63:D:/Users/Beheerder/Desktop/GPSBox/SensorMaritime-SensorBox/Sensorbox_firmware/GPSGyroAnalysisTool/GpsGyroAnalysisTool/GpsGyroAnalysisTool/Libraries/XMCLib/inc\xmc_gpio.h **** 
  64:D:/Users/Beheerder/Desktop/GPSBox/SensorMaritime-SensorBox/Sensorbox_firmware/GPSGyroAnalysisTool/GpsGyroAnalysisTool/GpsGyroAnalysisTool/Libraries/XMCLib/inc\xmc_gpio.h **** /**
  65:D:/Users/Beheerder/Desktop/GPSBox/SensorMaritime-SensorBox/Sensorbox_firmware/GPSGyroAnalysisTool/GpsGyroAnalysisTool/GpsGyroAnalysisTool/Libraries/XMCLib/inc\xmc_gpio.h ****  * @addtogroup GPIO
  66:D:/Users/Beheerder/Desktop/GPSBox/SensorMaritime-SensorBox/Sensorbox_firmware/GPSGyroAnalysisTool/GpsGyroAnalysisTool/GpsGyroAnalysisTool/Libraries/XMCLib/inc\xmc_gpio.h ****  * @brief General Purpose Input Output (GPIO) driver for the XMC microcontroller family.
  67:D:/Users/Beheerder/Desktop/GPSBox/SensorMaritime-SensorBox/Sensorbox_firmware/GPSGyroAnalysisTool/GpsGyroAnalysisTool/GpsGyroAnalysisTool/Libraries/XMCLib/inc\xmc_gpio.h ****  *
  68:D:/Users/Beheerder/Desktop/GPSBox/SensorMaritime-SensorBox/Sensorbox_firmware/GPSGyroAnalysisTool/GpsGyroAnalysisTool/GpsGyroAnalysisTool/Libraries/XMCLib/inc\xmc_gpio.h ****  * GPIO driver provide a generic and very flexible software interface for all standard digital I/O 
  69:D:/Users/Beheerder/Desktop/GPSBox/SensorMaritime-SensorBox/Sensorbox_firmware/GPSGyroAnalysisTool/GpsGyroAnalysisTool/GpsGyroAnalysisTool/Libraries/XMCLib/inc\xmc_gpio.h ****  * Each port slice has individual interfaces for the operation as General Purpose I/O and it furthe
  70:D:/Users/Beheerder/Desktop/GPSBox/SensorMaritime-SensorBox/Sensorbox_firmware/GPSGyroAnalysisTool/GpsGyroAnalysisTool/GpsGyroAnalysisTool/Libraries/XMCLib/inc\xmc_gpio.h ****  * connectivity to the on-chip periphery and the control for the pad characteristics. 
  71:D:/Users/Beheerder/Desktop/GPSBox/SensorMaritime-SensorBox/Sensorbox_firmware/GPSGyroAnalysisTool/GpsGyroAnalysisTool/GpsGyroAnalysisTool/Libraries/XMCLib/inc\xmc_gpio.h ****  *
  72:D:/Users/Beheerder/Desktop/GPSBox/SensorMaritime-SensorBox/Sensorbox_firmware/GPSGyroAnalysisTool/GpsGyroAnalysisTool/GpsGyroAnalysisTool/Libraries/XMCLib/inc\xmc_gpio.h ****  * The driver is divided into Input and Output mode.
  73:D:/Users/Beheerder/Desktop/GPSBox/SensorMaritime-SensorBox/Sensorbox_firmware/GPSGyroAnalysisTool/GpsGyroAnalysisTool/GpsGyroAnalysisTool/Libraries/XMCLib/inc\xmc_gpio.h ****  *
  74:D:/Users/Beheerder/Desktop/GPSBox/SensorMaritime-SensorBox/Sensorbox_firmware/GPSGyroAnalysisTool/GpsGyroAnalysisTool/GpsGyroAnalysisTool/Libraries/XMCLib/inc\xmc_gpio.h ****  * Input mode features:
  75:D:/Users/Beheerder/Desktop/GPSBox/SensorMaritime-SensorBox/Sensorbox_firmware/GPSGyroAnalysisTool/GpsGyroAnalysisTool/GpsGyroAnalysisTool/Libraries/XMCLib/inc\xmc_gpio.h ****  * -# Configuration structure XMC_GPIO_CONFIG_t and initialization function XMC_GPIO_Init()
  76:D:/Users/Beheerder/Desktop/GPSBox/SensorMaritime-SensorBox/Sensorbox_firmware/GPSGyroAnalysisTool/GpsGyroAnalysisTool/GpsGyroAnalysisTool/Libraries/XMCLib/inc\xmc_gpio.h ****  * -# Allows the selection of weak pull-up or pull-down device. Configuration structure XMC_GPIO_MO
  77:D:/Users/Beheerder/Desktop/GPSBox/SensorMaritime-SensorBox/Sensorbox_firmware/GPSGyroAnalysisTool/GpsGyroAnalysisTool/GpsGyroAnalysisTool/Libraries/XMCLib/inc\xmc_gpio.h ****  * \if XMC1
  78:D:/Users/Beheerder/Desktop/GPSBox/SensorMaritime-SensorBox/Sensorbox_firmware/GPSGyroAnalysisTool/GpsGyroAnalysisTool/GpsGyroAnalysisTool/Libraries/XMCLib/inc\xmc_gpio.h ****  * -# Allows the selection of input hysteresis. XMC_GPIO_SetInputHysteresis()
  79:D:/Users/Beheerder/Desktop/GPSBox/SensorMaritime-SensorBox/Sensorbox_firmware/GPSGyroAnalysisTool/GpsGyroAnalysisTool/GpsGyroAnalysisTool/Libraries/XMCLib/inc\xmc_gpio.h ****  * \endif
  80:D:/Users/Beheerder/Desktop/GPSBox/SensorMaritime-SensorBox/Sensorbox_firmware/GPSGyroAnalysisTool/GpsGyroAnalysisTool/GpsGyroAnalysisTool/Libraries/XMCLib/inc\xmc_gpio.h ****  *
  81:D:/Users/Beheerder/Desktop/GPSBox/SensorMaritime-SensorBox/Sensorbox_firmware/GPSGyroAnalysisTool/GpsGyroAnalysisTool/GpsGyroAnalysisTool/Libraries/XMCLib/inc\xmc_gpio.h ****  * 
  82:D:/Users/Beheerder/Desktop/GPSBox/SensorMaritime-SensorBox/Sensorbox_firmware/GPSGyroAnalysisTool/GpsGyroAnalysisTool/GpsGyroAnalysisTool/Libraries/XMCLib/inc\xmc_gpio.h ****  * Output mode features:
  83:D:/Users/Beheerder/Desktop/GPSBox/SensorMaritime-SensorBox/Sensorbox_firmware/GPSGyroAnalysisTool/GpsGyroAnalysisTool/GpsGyroAnalysisTool/Libraries/XMCLib/inc\xmc_gpio.h ****  * -# Allows the selection of push pull/open drain and Alternate output. Configuration structure XM
  84:D:/Users/Beheerder/Desktop/GPSBox/SensorMaritime-SensorBox/Sensorbox_firmware/GPSGyroAnalysisTool/GpsGyroAnalysisTool/GpsGyroAnalysisTool/Libraries/XMCLib/inc\xmc_gpio.h ****  * \if XMC4
  85:D:/Users/Beheerder/Desktop/GPSBox/SensorMaritime-SensorBox/Sensorbox_firmware/GPSGyroAnalysisTool/GpsGyroAnalysisTool/GpsGyroAnalysisTool/Libraries/XMCLib/inc\xmc_gpio.h ****  * -# Allows the selection of pad driver strength. Configuration structure XMC_GPIO_OUTPUT_STRENGTH
  86:D:/Users/Beheerder/Desktop/GPSBox/SensorMaritime-SensorBox/Sensorbox_firmware/GPSGyroAnalysisTool/GpsGyroAnalysisTool/GpsGyroAnalysisTool/Libraries/XMCLib/inc\xmc_gpio.h ****  * \endif
  87:D:/Users/Beheerder/Desktop/GPSBox/SensorMaritime-SensorBox/Sensorbox_firmware/GPSGyroAnalysisTool/GpsGyroAnalysisTool/GpsGyroAnalysisTool/Libraries/XMCLib/inc\xmc_gpio.h ****  *
  88:D:/Users/Beheerder/Desktop/GPSBox/SensorMaritime-SensorBox/Sensorbox_firmware/GPSGyroAnalysisTool/GpsGyroAnalysisTool/GpsGyroAnalysisTool/Libraries/XMCLib/inc\xmc_gpio.h ****  * -# Allows the selection of initial output level. Configuration structure XMC_GPIO_OUTPUT_LEVEL_t
  89:D:/Users/Beheerder/Desktop/GPSBox/SensorMaritime-SensorBox/Sensorbox_firmware/GPSGyroAnalysisTool/GpsGyroAnalysisTool/GpsGyroAnalysisTool/Libraries/XMCLib/inc\xmc_gpio.h ****  *
  90:D:/Users/Beheerder/Desktop/GPSBox/SensorMaritime-SensorBox/Sensorbox_firmware/GPSGyroAnalysisTool/GpsGyroAnalysisTool/GpsGyroAnalysisTool/Libraries/XMCLib/inc\xmc_gpio.h ****  *@{
  91:D:/Users/Beheerder/Desktop/GPSBox/SensorMaritime-SensorBox/Sensorbox_firmware/GPSGyroAnalysisTool/GpsGyroAnalysisTool/GpsGyroAnalysisTool/Libraries/XMCLib/inc\xmc_gpio.h ****  */
  92:D:/Users/Beheerder/Desktop/GPSBox/SensorMaritime-SensorBox/Sensorbox_firmware/GPSGyroAnalysisTool/GpsGyroAnalysisTool/GpsGyroAnalysisTool/Libraries/XMCLib/inc\xmc_gpio.h ****  
  93:D:/Users/Beheerder/Desktop/GPSBox/SensorMaritime-SensorBox/Sensorbox_firmware/GPSGyroAnalysisTool/GpsGyroAnalysisTool/GpsGyroAnalysisTool/Libraries/XMCLib/inc\xmc_gpio.h **** /**************************************************************************************************
  94:D:/Users/Beheerder/Desktop/GPSBox/SensorMaritime-SensorBox/Sensorbox_firmware/GPSGyroAnalysisTool/GpsGyroAnalysisTool/GpsGyroAnalysisTool/Libraries/XMCLib/inc\xmc_gpio.h ****  * MACROS
  95:D:/Users/Beheerder/Desktop/GPSBox/SensorMaritime-SensorBox/Sensorbox_firmware/GPSGyroAnalysisTool/GpsGyroAnalysisTool/GpsGyroAnalysisTool/Libraries/XMCLib/inc\xmc_gpio.h ****  **************************************************************************************************
  96:D:/Users/Beheerder/Desktop/GPSBox/SensorMaritime-SensorBox/Sensorbox_firmware/GPSGyroAnalysisTool/GpsGyroAnalysisTool/GpsGyroAnalysisTool/Libraries/XMCLib/inc\xmc_gpio.h **** 
  97:D:/Users/Beheerder/Desktop/GPSBox/SensorMaritime-SensorBox/Sensorbox_firmware/GPSGyroAnalysisTool/GpsGyroAnalysisTool/GpsGyroAnalysisTool/Libraries/XMCLib/inc\xmc_gpio.h **** #define PORT_IOCR_PC_Pos PORT0_IOCR0_PC0_Pos
  98:D:/Users/Beheerder/Desktop/GPSBox/SensorMaritime-SensorBox/Sensorbox_firmware/GPSGyroAnalysisTool/GpsGyroAnalysisTool/GpsGyroAnalysisTool/Libraries/XMCLib/inc\xmc_gpio.h **** #define PORT_IOCR_PC_Msk PORT0_IOCR0_PC0_Msk
  99:D:/Users/Beheerder/Desktop/GPSBox/SensorMaritime-SensorBox/Sensorbox_firmware/GPSGyroAnalysisTool/GpsGyroAnalysisTool/GpsGyroAnalysisTool/Libraries/XMCLib/inc\xmc_gpio.h **** 
 100:D:/Users/Beheerder/Desktop/GPSBox/SensorMaritime-SensorBox/Sensorbox_firmware/GPSGyroAnalysisTool/GpsGyroAnalysisTool/GpsGyroAnalysisTool/Libraries/XMCLib/inc\xmc_gpio.h **** #define PORT_IOCR_PC_Size 				(8U)
 101:D:/Users/Beheerder/Desktop/GPSBox/SensorMaritime-SensorBox/Sensorbox_firmware/GPSGyroAnalysisTool/GpsGyroAnalysisTool/GpsGyroAnalysisTool/Libraries/XMCLib/inc\xmc_gpio.h **** 											
 102:D:/Users/Beheerder/Desktop/GPSBox/SensorMaritime-SensorBox/Sensorbox_firmware/GPSGyroAnalysisTool/GpsGyroAnalysisTool/GpsGyroAnalysisTool/Libraries/XMCLib/inc\xmc_gpio.h **** 
 103:D:/Users/Beheerder/Desktop/GPSBox/SensorMaritime-SensorBox/Sensorbox_firmware/GPSGyroAnalysisTool/GpsGyroAnalysisTool/GpsGyroAnalysisTool/Libraries/XMCLib/inc\xmc_gpio.h **** #define XMC_GPIO_CHECK_OUTPUT_LEVEL(level) ((level == XMC_GPIO_OUTPUT_LEVEL_LOW) || \
 104:D:/Users/Beheerder/Desktop/GPSBox/SensorMaritime-SensorBox/Sensorbox_firmware/GPSGyroAnalysisTool/GpsGyroAnalysisTool/GpsGyroAnalysisTool/Libraries/XMCLib/inc\xmc_gpio.h ****                                             (level == XMC_GPIO_OUTPUT_LEVEL_HIGH))
 105:D:/Users/Beheerder/Desktop/GPSBox/SensorMaritime-SensorBox/Sensorbox_firmware/GPSGyroAnalysisTool/GpsGyroAnalysisTool/GpsGyroAnalysisTool/Libraries/XMCLib/inc\xmc_gpio.h ****                                             
 106:D:/Users/Beheerder/Desktop/GPSBox/SensorMaritime-SensorBox/Sensorbox_firmware/GPSGyroAnalysisTool/GpsGyroAnalysisTool/GpsGyroAnalysisTool/Libraries/XMCLib/inc\xmc_gpio.h **** #define XMC_GPIO_CHECK_HWCTRL(hwctrl) ((hwctrl == XMC_GPIO_HWCTRL_DISABLED) || \
 107:D:/Users/Beheerder/Desktop/GPSBox/SensorMaritime-SensorBox/Sensorbox_firmware/GPSGyroAnalysisTool/GpsGyroAnalysisTool/GpsGyroAnalysisTool/Libraries/XMCLib/inc\xmc_gpio.h ****                                        (hwctrl == XMC_GPIO_HWCTRL_PERIPHERAL1) || \
 108:D:/Users/Beheerder/Desktop/GPSBox/SensorMaritime-SensorBox/Sensorbox_firmware/GPSGyroAnalysisTool/GpsGyroAnalysisTool/GpsGyroAnalysisTool/Libraries/XMCLib/inc\xmc_gpio.h ****                                        (hwctrl == XMC_GPIO_HWCTRL_PERIPHERAL2))                    
 109:D:/Users/Beheerder/Desktop/GPSBox/SensorMaritime-SensorBox/Sensorbox_firmware/GPSGyroAnalysisTool/GpsGyroAnalysisTool/GpsGyroAnalysisTool/Libraries/XMCLib/inc\xmc_gpio.h ****                                             
 110:D:/Users/Beheerder/Desktop/GPSBox/SensorMaritime-SensorBox/Sensorbox_firmware/GPSGyroAnalysisTool/GpsGyroAnalysisTool/GpsGyroAnalysisTool/Libraries/XMCLib/inc\xmc_gpio.h **** /**************************************************************************************************
 111:D:/Users/Beheerder/Desktop/GPSBox/SensorMaritime-SensorBox/Sensorbox_firmware/GPSGyroAnalysisTool/GpsGyroAnalysisTool/GpsGyroAnalysisTool/Libraries/XMCLib/inc\xmc_gpio.h ****  * ENUMS
 112:D:/Users/Beheerder/Desktop/GPSBox/SensorMaritime-SensorBox/Sensorbox_firmware/GPSGyroAnalysisTool/GpsGyroAnalysisTool/GpsGyroAnalysisTool/Libraries/XMCLib/inc\xmc_gpio.h ****  **************************************************************************************************
 113:D:/Users/Beheerder/Desktop/GPSBox/SensorMaritime-SensorBox/Sensorbox_firmware/GPSGyroAnalysisTool/GpsGyroAnalysisTool/GpsGyroAnalysisTool/Libraries/XMCLib/inc\xmc_gpio.h **** 
 114:D:/Users/Beheerder/Desktop/GPSBox/SensorMaritime-SensorBox/Sensorbox_firmware/GPSGyroAnalysisTool/GpsGyroAnalysisTool/GpsGyroAnalysisTool/Libraries/XMCLib/inc\xmc_gpio.h **** 
 115:D:/Users/Beheerder/Desktop/GPSBox/SensorMaritime-SensorBox/Sensorbox_firmware/GPSGyroAnalysisTool/GpsGyroAnalysisTool/GpsGyroAnalysisTool/Libraries/XMCLib/inc\xmc_gpio.h **** /**
 116:D:/Users/Beheerder/Desktop/GPSBox/SensorMaritime-SensorBox/Sensorbox_firmware/GPSGyroAnalysisTool/GpsGyroAnalysisTool/GpsGyroAnalysisTool/Libraries/XMCLib/inc\xmc_gpio.h ****  * Defines output level of a pin. Use type \a XMC_GPIO_OUTPUT_LEVEL_t for this enum.
 117:D:/Users/Beheerder/Desktop/GPSBox/SensorMaritime-SensorBox/Sensorbox_firmware/GPSGyroAnalysisTool/GpsGyroAnalysisTool/GpsGyroAnalysisTool/Libraries/XMCLib/inc\xmc_gpio.h ****  */
 118:D:/Users/Beheerder/Desktop/GPSBox/SensorMaritime-SensorBox/Sensorbox_firmware/GPSGyroAnalysisTool/GpsGyroAnalysisTool/GpsGyroAnalysisTool/Libraries/XMCLib/inc\xmc_gpio.h **** typedef enum XMC_GPIO_OUTPUT_LEVEL
 119:D:/Users/Beheerder/Desktop/GPSBox/SensorMaritime-SensorBox/Sensorbox_firmware/GPSGyroAnalysisTool/GpsGyroAnalysisTool/GpsGyroAnalysisTool/Libraries/XMCLib/inc\xmc_gpio.h **** {
 120:D:/Users/Beheerder/Desktop/GPSBox/SensorMaritime-SensorBox/Sensorbox_firmware/GPSGyroAnalysisTool/GpsGyroAnalysisTool/GpsGyroAnalysisTool/Libraries/XMCLib/inc\xmc_gpio.h ****   XMC_GPIO_OUTPUT_LEVEL_LOW  = 0x10000U, /**<  Reset bit */
 121:D:/Users/Beheerder/Desktop/GPSBox/SensorMaritime-SensorBox/Sensorbox_firmware/GPSGyroAnalysisTool/GpsGyroAnalysisTool/GpsGyroAnalysisTool/Libraries/XMCLib/inc\xmc_gpio.h ****   XMC_GPIO_OUTPUT_LEVEL_HIGH = 0x1U, 	/**< Set bit  */
 122:D:/Users/Beheerder/Desktop/GPSBox/SensorMaritime-SensorBox/Sensorbox_firmware/GPSGyroAnalysisTool/GpsGyroAnalysisTool/GpsGyroAnalysisTool/Libraries/XMCLib/inc\xmc_gpio.h **** } XMC_GPIO_OUTPUT_LEVEL_t;
 123:D:/Users/Beheerder/Desktop/GPSBox/SensorMaritime-SensorBox/Sensorbox_firmware/GPSGyroAnalysisTool/GpsGyroAnalysisTool/GpsGyroAnalysisTool/Libraries/XMCLib/inc\xmc_gpio.h **** 
 124:D:/Users/Beheerder/Desktop/GPSBox/SensorMaritime-SensorBox/Sensorbox_firmware/GPSGyroAnalysisTool/GpsGyroAnalysisTool/GpsGyroAnalysisTool/Libraries/XMCLib/inc\xmc_gpio.h **** /**
 125:D:/Users/Beheerder/Desktop/GPSBox/SensorMaritime-SensorBox/Sensorbox_firmware/GPSGyroAnalysisTool/GpsGyroAnalysisTool/GpsGyroAnalysisTool/Libraries/XMCLib/inc\xmc_gpio.h ****  * Defines direct hardware control characteristics of the pin . Use type \a XMC_GPIO_HWCTRL_t for t
 126:D:/Users/Beheerder/Desktop/GPSBox/SensorMaritime-SensorBox/Sensorbox_firmware/GPSGyroAnalysisTool/GpsGyroAnalysisTool/GpsGyroAnalysisTool/Libraries/XMCLib/inc\xmc_gpio.h ****  */
 127:D:/Users/Beheerder/Desktop/GPSBox/SensorMaritime-SensorBox/Sensorbox_firmware/GPSGyroAnalysisTool/GpsGyroAnalysisTool/GpsGyroAnalysisTool/Libraries/XMCLib/inc\xmc_gpio.h **** typedef enum XMC_GPIO_HWCTRL
 128:D:/Users/Beheerder/Desktop/GPSBox/SensorMaritime-SensorBox/Sensorbox_firmware/GPSGyroAnalysisTool/GpsGyroAnalysisTool/GpsGyroAnalysisTool/Libraries/XMCLib/inc\xmc_gpio.h **** {
 129:D:/Users/Beheerder/Desktop/GPSBox/SensorMaritime-SensorBox/Sensorbox_firmware/GPSGyroAnalysisTool/GpsGyroAnalysisTool/GpsGyroAnalysisTool/Libraries/XMCLib/inc\xmc_gpio.h ****   XMC_GPIO_HWCTRL_DISABLED     = 0x0U, /**<  Software control only */
 130:D:/Users/Beheerder/Desktop/GPSBox/SensorMaritime-SensorBox/Sensorbox_firmware/GPSGyroAnalysisTool/GpsGyroAnalysisTool/GpsGyroAnalysisTool/Libraries/XMCLib/inc\xmc_gpio.h ****   XMC_GPIO_HWCTRL_PERIPHERAL1  = 0x1U, /**<  HWI0/HWO0 control path can override the software confi
 131:D:/Users/Beheerder/Desktop/GPSBox/SensorMaritime-SensorBox/Sensorbox_firmware/GPSGyroAnalysisTool/GpsGyroAnalysisTool/GpsGyroAnalysisTool/Libraries/XMCLib/inc\xmc_gpio.h ****   XMC_GPIO_HWCTRL_PERIPHERAL2  = 0x2U  /**<  HWI1/HWO1 control path can override the software confi
 132:D:/Users/Beheerder/Desktop/GPSBox/SensorMaritime-SensorBox/Sensorbox_firmware/GPSGyroAnalysisTool/GpsGyroAnalysisTool/GpsGyroAnalysisTool/Libraries/XMCLib/inc\xmc_gpio.h **** } XMC_GPIO_HWCTRL_t;
 133:D:/Users/Beheerder/Desktop/GPSBox/SensorMaritime-SensorBox/Sensorbox_firmware/GPSGyroAnalysisTool/GpsGyroAnalysisTool/GpsGyroAnalysisTool/Libraries/XMCLib/inc\xmc_gpio.h **** 
 134:D:/Users/Beheerder/Desktop/GPSBox/SensorMaritime-SensorBox/Sensorbox_firmware/GPSGyroAnalysisTool/GpsGyroAnalysisTool/GpsGyroAnalysisTool/Libraries/XMCLib/inc\xmc_gpio.h **** /**************************************************************************************************
 135:D:/Users/Beheerder/Desktop/GPSBox/SensorMaritime-SensorBox/Sensorbox_firmware/GPSGyroAnalysisTool/GpsGyroAnalysisTool/GpsGyroAnalysisTool/Libraries/XMCLib/inc\xmc_gpio.h ****  * DEVICE FAMILY EXTENSIONS
 136:D:/Users/Beheerder/Desktop/GPSBox/SensorMaritime-SensorBox/Sensorbox_firmware/GPSGyroAnalysisTool/GpsGyroAnalysisTool/GpsGyroAnalysisTool/Libraries/XMCLib/inc\xmc_gpio.h ****  **************************************************************************************************
 137:D:/Users/Beheerder/Desktop/GPSBox/SensorMaritime-SensorBox/Sensorbox_firmware/GPSGyroAnalysisTool/GpsGyroAnalysisTool/GpsGyroAnalysisTool/Libraries/XMCLib/inc\xmc_gpio.h **** 
 138:D:/Users/Beheerder/Desktop/GPSBox/SensorMaritime-SensorBox/Sensorbox_firmware/GPSGyroAnalysisTool/GpsGyroAnalysisTool/GpsGyroAnalysisTool/Libraries/XMCLib/inc\xmc_gpio.h ****  #if UC_FAMILY == XMC1
 139:D:/Users/Beheerder/Desktop/GPSBox/SensorMaritime-SensorBox/Sensorbox_firmware/GPSGyroAnalysisTool/GpsGyroAnalysisTool/GpsGyroAnalysisTool/Libraries/XMCLib/inc\xmc_gpio.h **** #include "xmc1_gpio.h"
 140:D:/Users/Beheerder/Desktop/GPSBox/SensorMaritime-SensorBox/Sensorbox_firmware/GPSGyroAnalysisTool/GpsGyroAnalysisTool/GpsGyroAnalysisTool/Libraries/XMCLib/inc\xmc_gpio.h **** #elif UC_FAMILY == XMC4
 141:D:/Users/Beheerder/Desktop/GPSBox/SensorMaritime-SensorBox/Sensorbox_firmware/GPSGyroAnalysisTool/GpsGyroAnalysisTool/GpsGyroAnalysisTool/Libraries/XMCLib/inc\xmc_gpio.h **** #include "xmc4_gpio.h"
 142:D:/Users/Beheerder/Desktop/GPSBox/SensorMaritime-SensorBox/Sensorbox_firmware/GPSGyroAnalysisTool/GpsGyroAnalysisTool/GpsGyroAnalysisTool/Libraries/XMCLib/inc\xmc_gpio.h **** #else
 143:D:/Users/Beheerder/Desktop/GPSBox/SensorMaritime-SensorBox/Sensorbox_firmware/GPSGyroAnalysisTool/GpsGyroAnalysisTool/GpsGyroAnalysisTool/Libraries/XMCLib/inc\xmc_gpio.h **** #error "xmc_gpio.h: family device not supported"
 144:D:/Users/Beheerder/Desktop/GPSBox/SensorMaritime-SensorBox/Sensorbox_firmware/GPSGyroAnalysisTool/GpsGyroAnalysisTool/GpsGyroAnalysisTool/Libraries/XMCLib/inc\xmc_gpio.h **** #endif
 145:D:/Users/Beheerder/Desktop/GPSBox/SensorMaritime-SensorBox/Sensorbox_firmware/GPSGyroAnalysisTool/GpsGyroAnalysisTool/GpsGyroAnalysisTool/Libraries/XMCLib/inc\xmc_gpio.h **** 
 146:D:/Users/Beheerder/Desktop/GPSBox/SensorMaritime-SensorBox/Sensorbox_firmware/GPSGyroAnalysisTool/GpsGyroAnalysisTool/GpsGyroAnalysisTool/Libraries/XMCLib/inc\xmc_gpio.h **** /**************************************************************************************************
 147:D:/Users/Beheerder/Desktop/GPSBox/SensorMaritime-SensorBox/Sensorbox_firmware/GPSGyroAnalysisTool/GpsGyroAnalysisTool/GpsGyroAnalysisTool/Libraries/XMCLib/inc\xmc_gpio.h ****  * API PROTOTYPES
 148:D:/Users/Beheerder/Desktop/GPSBox/SensorMaritime-SensorBox/Sensorbox_firmware/GPSGyroAnalysisTool/GpsGyroAnalysisTool/GpsGyroAnalysisTool/Libraries/XMCLib/inc\xmc_gpio.h ****  **************************************************************************************************
 149:D:/Users/Beheerder/Desktop/GPSBox/SensorMaritime-SensorBox/Sensorbox_firmware/GPSGyroAnalysisTool/GpsGyroAnalysisTool/GpsGyroAnalysisTool/Libraries/XMCLib/inc\xmc_gpio.h **** 
 150:D:/Users/Beheerder/Desktop/GPSBox/SensorMaritime-SensorBox/Sensorbox_firmware/GPSGyroAnalysisTool/GpsGyroAnalysisTool/GpsGyroAnalysisTool/Libraries/XMCLib/inc\xmc_gpio.h **** #ifdef __cplusplus
 151:D:/Users/Beheerder/Desktop/GPSBox/SensorMaritime-SensorBox/Sensorbox_firmware/GPSGyroAnalysisTool/GpsGyroAnalysisTool/GpsGyroAnalysisTool/Libraries/XMCLib/inc\xmc_gpio.h **** extern "C" {
 152:D:/Users/Beheerder/Desktop/GPSBox/SensorMaritime-SensorBox/Sensorbox_firmware/GPSGyroAnalysisTool/GpsGyroAnalysisTool/GpsGyroAnalysisTool/Libraries/XMCLib/inc\xmc_gpio.h **** #endif
 153:D:/Users/Beheerder/Desktop/GPSBox/SensorMaritime-SensorBox/Sensorbox_firmware/GPSGyroAnalysisTool/GpsGyroAnalysisTool/GpsGyroAnalysisTool/Libraries/XMCLib/inc\xmc_gpio.h **** 
 154:D:/Users/Beheerder/Desktop/GPSBox/SensorMaritime-SensorBox/Sensorbox_firmware/GPSGyroAnalysisTool/GpsGyroAnalysisTool/GpsGyroAnalysisTool/Libraries/XMCLib/inc\xmc_gpio.h **** 
 155:D:/Users/Beheerder/Desktop/GPSBox/SensorMaritime-SensorBox/Sensorbox_firmware/GPSGyroAnalysisTool/GpsGyroAnalysisTool/GpsGyroAnalysisTool/Libraries/XMCLib/inc\xmc_gpio.h **** /**
 156:D:/Users/Beheerder/Desktop/GPSBox/SensorMaritime-SensorBox/Sensorbox_firmware/GPSGyroAnalysisTool/GpsGyroAnalysisTool/GpsGyroAnalysisTool/Libraries/XMCLib/inc\xmc_gpio.h ****  * @param  port	  Constant pointer pointing to GPIO port, to access port registers like Pn_OUT,Pn_O
 157:D:/Users/Beheerder/Desktop/GPSBox/SensorMaritime-SensorBox/Sensorbox_firmware/GPSGyroAnalysisTool/GpsGyroAnalysisTool/GpsGyroAnalysisTool/Libraries/XMCLib/inc\xmc_gpio.h ****  * @param  pin	  Port pin number.
 158:D:/Users/Beheerder/Desktop/GPSBox/SensorMaritime-SensorBox/Sensorbox_firmware/GPSGyroAnalysisTool/GpsGyroAnalysisTool/GpsGyroAnalysisTool/Libraries/XMCLib/inc\xmc_gpio.h ****  * @param  config GPIO configuration data structure. Refer data structure @ref XMC_GPIO_CONFIG_t fo
 159:D:/Users/Beheerder/Desktop/GPSBox/SensorMaritime-SensorBox/Sensorbox_firmware/GPSGyroAnalysisTool/GpsGyroAnalysisTool/GpsGyroAnalysisTool/Libraries/XMCLib/inc\xmc_gpio.h ****  *
 160:D:/Users/Beheerder/Desktop/GPSBox/SensorMaritime-SensorBox/Sensorbox_firmware/GPSGyroAnalysisTool/GpsGyroAnalysisTool/GpsGyroAnalysisTool/Libraries/XMCLib/inc\xmc_gpio.h ****  * @return None
 161:D:/Users/Beheerder/Desktop/GPSBox/SensorMaritime-SensorBox/Sensorbox_firmware/GPSGyroAnalysisTool/GpsGyroAnalysisTool/GpsGyroAnalysisTool/Libraries/XMCLib/inc\xmc_gpio.h ****  *
 162:D:/Users/Beheerder/Desktop/GPSBox/SensorMaritime-SensorBox/Sensorbox_firmware/GPSGyroAnalysisTool/GpsGyroAnalysisTool/GpsGyroAnalysisTool/Libraries/XMCLib/inc\xmc_gpio.h ****  * \par<b>Description:</b><br>
 163:D:/Users/Beheerder/Desktop/GPSBox/SensorMaritime-SensorBox/Sensorbox_firmware/GPSGyroAnalysisTool/GpsGyroAnalysisTool/GpsGyroAnalysisTool/Libraries/XMCLib/inc\xmc_gpio.h ****  * \if XMC1
 164:D:/Users/Beheerder/Desktop/GPSBox/SensorMaritime-SensorBox/Sensorbox_firmware/GPSGyroAnalysisTool/GpsGyroAnalysisTool/GpsGyroAnalysisTool/Libraries/XMCLib/inc\xmc_gpio.h ****  * Initializes input / output mode settings like, pull up / pull down devices,hysteresis, push pull
 165:D:/Users/Beheerder/Desktop/GPSBox/SensorMaritime-SensorBox/Sensorbox_firmware/GPSGyroAnalysisTool/GpsGyroAnalysisTool/GpsGyroAnalysisTool/Libraries/XMCLib/inc\xmc_gpio.h ****  * Also configures alternate function outputs and clears hardware port control for a selected \a po
 166:D:/Users/Beheerder/Desktop/GPSBox/SensorMaritime-SensorBox/Sensorbox_firmware/GPSGyroAnalysisTool/GpsGyroAnalysisTool/GpsGyroAnalysisTool/Libraries/XMCLib/inc\xmc_gpio.h ****  * \a config provides selected I/O settings. It configures hardware registers Pn_IOCR,Pn_OUT, Pn_OM
 167:D:/Users/Beheerder/Desktop/GPSBox/SensorMaritime-SensorBox/Sensorbox_firmware/GPSGyroAnalysisTool/GpsGyroAnalysisTool/GpsGyroAnalysisTool/Libraries/XMCLib/inc\xmc_gpio.h ****  * \endif
 168:D:/Users/Beheerder/Desktop/GPSBox/SensorMaritime-SensorBox/Sensorbox_firmware/GPSGyroAnalysisTool/GpsGyroAnalysisTool/GpsGyroAnalysisTool/Libraries/XMCLib/inc\xmc_gpio.h ****  * \if XMC4
 169:D:/Users/Beheerder/Desktop/GPSBox/SensorMaritime-SensorBox/Sensorbox_firmware/GPSGyroAnalysisTool/GpsGyroAnalysisTool/GpsGyroAnalysisTool/Libraries/XMCLib/inc\xmc_gpio.h ****  * Initializes input / output mode settings like, pull up / pull down devices,push pull /open drain
 170:D:/Users/Beheerder/Desktop/GPSBox/SensorMaritime-SensorBox/Sensorbox_firmware/GPSGyroAnalysisTool/GpsGyroAnalysisTool/GpsGyroAnalysisTool/Libraries/XMCLib/inc\xmc_gpio.h ****  * Also configures alternate function outputs and clears hardware port control for selected \a port
 171:D:/Users/Beheerder/Desktop/GPSBox/SensorMaritime-SensorBox/Sensorbox_firmware/GPSGyroAnalysisTool/GpsGyroAnalysisTool/GpsGyroAnalysisTool/Libraries/XMCLib/inc\xmc_gpio.h ****  * It configures hardware registers Pn_IOCR,Pn_OUT,Pn_OMR,Pn_PDISC and Pn_PDR.\n
 172:D:/Users/Beheerder/Desktop/GPSBox/SensorMaritime-SensorBox/Sensorbox_firmware/GPSGyroAnalysisTool/GpsGyroAnalysisTool/GpsGyroAnalysisTool/Libraries/XMCLib/inc\xmc_gpio.h ****  * \endif
 173:D:/Users/Beheerder/Desktop/GPSBox/SensorMaritime-SensorBox/Sensorbox_firmware/GPSGyroAnalysisTool/GpsGyroAnalysisTool/GpsGyroAnalysisTool/Libraries/XMCLib/inc\xmc_gpio.h ****  *
 174:D:/Users/Beheerder/Desktop/GPSBox/SensorMaritime-SensorBox/Sensorbox_firmware/GPSGyroAnalysisTool/GpsGyroAnalysisTool/GpsGyroAnalysisTool/Libraries/XMCLib/inc\xmc_gpio.h ****  * \par<b>Related APIs:</b><BR>
 175:D:/Users/Beheerder/Desktop/GPSBox/SensorMaritime-SensorBox/Sensorbox_firmware/GPSGyroAnalysisTool/GpsGyroAnalysisTool/GpsGyroAnalysisTool/Libraries/XMCLib/inc\xmc_gpio.h ****  *  None
 176:D:/Users/Beheerder/Desktop/GPSBox/SensorMaritime-SensorBox/Sensorbox_firmware/GPSGyroAnalysisTool/GpsGyroAnalysisTool/GpsGyroAnalysisTool/Libraries/XMCLib/inc\xmc_gpio.h ****  *
 177:D:/Users/Beheerder/Desktop/GPSBox/SensorMaritime-SensorBox/Sensorbox_firmware/GPSGyroAnalysisTool/GpsGyroAnalysisTool/GpsGyroAnalysisTool/Libraries/XMCLib/inc\xmc_gpio.h ****  * \par<b>Note:</b><br>
 178:D:/Users/Beheerder/Desktop/GPSBox/SensorMaritime-SensorBox/Sensorbox_firmware/GPSGyroAnalysisTool/GpsGyroAnalysisTool/GpsGyroAnalysisTool/Libraries/XMCLib/inc\xmc_gpio.h ****  * This API is called in definition of DAVE_init by code generation and therefore should not be exp
 179:D:/Users/Beheerder/Desktop/GPSBox/SensorMaritime-SensorBox/Sensorbox_firmware/GPSGyroAnalysisTool/GpsGyroAnalysisTool/GpsGyroAnalysisTool/Libraries/XMCLib/inc\xmc_gpio.h ****  * for the normal operation. Use other APIs only after DAVE_init is called successfully (returns DA
 180:D:/Users/Beheerder/Desktop/GPSBox/SensorMaritime-SensorBox/Sensorbox_firmware/GPSGyroAnalysisTool/GpsGyroAnalysisTool/GpsGyroAnalysisTool/Libraries/XMCLib/inc\xmc_gpio.h ****  *
 181:D:/Users/Beheerder/Desktop/GPSBox/SensorMaritime-SensorBox/Sensorbox_firmware/GPSGyroAnalysisTool/GpsGyroAnalysisTool/GpsGyroAnalysisTool/Libraries/XMCLib/inc\xmc_gpio.h ****  *
 182:D:/Users/Beheerder/Desktop/GPSBox/SensorMaritime-SensorBox/Sensorbox_firmware/GPSGyroAnalysisTool/GpsGyroAnalysisTool/GpsGyroAnalysisTool/Libraries/XMCLib/inc\xmc_gpio.h ****  */
 183:D:/Users/Beheerder/Desktop/GPSBox/SensorMaritime-SensorBox/Sensorbox_firmware/GPSGyroAnalysisTool/GpsGyroAnalysisTool/GpsGyroAnalysisTool/Libraries/XMCLib/inc\xmc_gpio.h **** 
 184:D:/Users/Beheerder/Desktop/GPSBox/SensorMaritime-SensorBox/Sensorbox_firmware/GPSGyroAnalysisTool/GpsGyroAnalysisTool/GpsGyroAnalysisTool/Libraries/XMCLib/inc\xmc_gpio.h ****  
 185:D:/Users/Beheerder/Desktop/GPSBox/SensorMaritime-SensorBox/Sensorbox_firmware/GPSGyroAnalysisTool/GpsGyroAnalysisTool/GpsGyroAnalysisTool/Libraries/XMCLib/inc\xmc_gpio.h **** void XMC_GPIO_Init(XMC_GPIO_PORT_t *const port, const uint8_t pin, const XMC_GPIO_CONFIG_t *const c
 186:D:/Users/Beheerder/Desktop/GPSBox/SensorMaritime-SensorBox/Sensorbox_firmware/GPSGyroAnalysisTool/GpsGyroAnalysisTool/GpsGyroAnalysisTool/Libraries/XMCLib/inc\xmc_gpio.h ****  
 187:D:/Users/Beheerder/Desktop/GPSBox/SensorMaritime-SensorBox/Sensorbox_firmware/GPSGyroAnalysisTool/GpsGyroAnalysisTool/GpsGyroAnalysisTool/Libraries/XMCLib/inc\xmc_gpio.h **** /**
 188:D:/Users/Beheerder/Desktop/GPSBox/SensorMaritime-SensorBox/Sensorbox_firmware/GPSGyroAnalysisTool/GpsGyroAnalysisTool/GpsGyroAnalysisTool/Libraries/XMCLib/inc\xmc_gpio.h ****  *
 189:D:/Users/Beheerder/Desktop/GPSBox/SensorMaritime-SensorBox/Sensorbox_firmware/GPSGyroAnalysisTool/GpsGyroAnalysisTool/GpsGyroAnalysisTool/Libraries/XMCLib/inc\xmc_gpio.h ****  * @param  port	Constant pointer pointing to GPIO port, to access hardware register Pn_IOCR.
 190:D:/Users/Beheerder/Desktop/GPSBox/SensorMaritime-SensorBox/Sensorbox_firmware/GPSGyroAnalysisTool/GpsGyroAnalysisTool/GpsGyroAnalysisTool/Libraries/XMCLib/inc\xmc_gpio.h ****  * @param  pin	Port pin number.
 191:D:/Users/Beheerder/Desktop/GPSBox/SensorMaritime-SensorBox/Sensorbox_firmware/GPSGyroAnalysisTool/GpsGyroAnalysisTool/GpsGyroAnalysisTool/Libraries/XMCLib/inc\xmc_gpio.h ****  * @param  mode input / output functionality selection. Refer @ref XMC_GPIO_MODE_t for valid values
 192:D:/Users/Beheerder/Desktop/GPSBox/SensorMaritime-SensorBox/Sensorbox_firmware/GPSGyroAnalysisTool/GpsGyroAnalysisTool/GpsGyroAnalysisTool/Libraries/XMCLib/inc\xmc_gpio.h ****  *
 193:D:/Users/Beheerder/Desktop/GPSBox/SensorMaritime-SensorBox/Sensorbox_firmware/GPSGyroAnalysisTool/GpsGyroAnalysisTool/GpsGyroAnalysisTool/Libraries/XMCLib/inc\xmc_gpio.h ****  * @return None
 194:D:/Users/Beheerder/Desktop/GPSBox/SensorMaritime-SensorBox/Sensorbox_firmware/GPSGyroAnalysisTool/GpsGyroAnalysisTool/GpsGyroAnalysisTool/Libraries/XMCLib/inc\xmc_gpio.h ****  *
 195:D:/Users/Beheerder/Desktop/GPSBox/SensorMaritime-SensorBox/Sensorbox_firmware/GPSGyroAnalysisTool/GpsGyroAnalysisTool/GpsGyroAnalysisTool/Libraries/XMCLib/inc\xmc_gpio.h ****  * \par<b>Description:</b><br>
 196:D:/Users/Beheerder/Desktop/GPSBox/SensorMaritime-SensorBox/Sensorbox_firmware/GPSGyroAnalysisTool/GpsGyroAnalysisTool/GpsGyroAnalysisTool/Libraries/XMCLib/inc\xmc_gpio.h ****  * Sets digital input and output driver functionality and characteristics of a GPIO port pin. It co
 197:D:/Users/Beheerder/Desktop/GPSBox/SensorMaritime-SensorBox/Sensorbox_firmware/GPSGyroAnalysisTool/GpsGyroAnalysisTool/GpsGyroAnalysisTool/Libraries/XMCLib/inc\xmc_gpio.h ****  * registers Pn_IOCR. \a mode is initially configured during initialization in XMC_GPIO_Init(). Cal
 198:D:/Users/Beheerder/Desktop/GPSBox/SensorMaritime-SensorBox/Sensorbox_firmware/GPSGyroAnalysisTool/GpsGyroAnalysisTool/GpsGyroAnalysisTool/Libraries/XMCLib/inc\xmc_gpio.h ****  * the port direction functionality as needed later in the program.
 199:D:/Users/Beheerder/Desktop/GPSBox/SensorMaritime-SensorBox/Sensorbox_firmware/GPSGyroAnalysisTool/GpsGyroAnalysisTool/GpsGyroAnalysisTool/Libraries/XMCLib/inc\xmc_gpio.h ****  *
 200:D:/Users/Beheerder/Desktop/GPSBox/SensorMaritime-SensorBox/Sensorbox_firmware/GPSGyroAnalysisTool/GpsGyroAnalysisTool/GpsGyroAnalysisTool/Libraries/XMCLib/inc\xmc_gpio.h ****  * \par<b>Related APIs:</b><BR>
 201:D:/Users/Beheerder/Desktop/GPSBox/SensorMaritime-SensorBox/Sensorbox_firmware/GPSGyroAnalysisTool/GpsGyroAnalysisTool/GpsGyroAnalysisTool/Libraries/XMCLib/inc\xmc_gpio.h ****  *  None
 202:D:/Users/Beheerder/Desktop/GPSBox/SensorMaritime-SensorBox/Sensorbox_firmware/GPSGyroAnalysisTool/GpsGyroAnalysisTool/GpsGyroAnalysisTool/Libraries/XMCLib/inc\xmc_gpio.h ****  *
 203:D:/Users/Beheerder/Desktop/GPSBox/SensorMaritime-SensorBox/Sensorbox_firmware/GPSGyroAnalysisTool/GpsGyroAnalysisTool/GpsGyroAnalysisTool/Libraries/XMCLib/inc\xmc_gpio.h ****  */
 204:D:/Users/Beheerder/Desktop/GPSBox/SensorMaritime-SensorBox/Sensorbox_firmware/GPSGyroAnalysisTool/GpsGyroAnalysisTool/GpsGyroAnalysisTool/Libraries/XMCLib/inc\xmc_gpio.h **** 
 205:D:/Users/Beheerder/Desktop/GPSBox/SensorMaritime-SensorBox/Sensorbox_firmware/GPSGyroAnalysisTool/GpsGyroAnalysisTool/GpsGyroAnalysisTool/Libraries/XMCLib/inc\xmc_gpio.h **** void XMC_GPIO_SetMode(XMC_GPIO_PORT_t *const port, const uint8_t pin, const XMC_GPIO_MODE_t mode);
 206:D:/Users/Beheerder/Desktop/GPSBox/SensorMaritime-SensorBox/Sensorbox_firmware/GPSGyroAnalysisTool/GpsGyroAnalysisTool/GpsGyroAnalysisTool/Libraries/XMCLib/inc\xmc_gpio.h **** 
 207:D:/Users/Beheerder/Desktop/GPSBox/SensorMaritime-SensorBox/Sensorbox_firmware/GPSGyroAnalysisTool/GpsGyroAnalysisTool/GpsGyroAnalysisTool/Libraries/XMCLib/inc\xmc_gpio.h **** 
 208:D:/Users/Beheerder/Desktop/GPSBox/SensorMaritime-SensorBox/Sensorbox_firmware/GPSGyroAnalysisTool/GpsGyroAnalysisTool/GpsGyroAnalysisTool/Libraries/XMCLib/inc\xmc_gpio.h **** /**
 209:D:/Users/Beheerder/Desktop/GPSBox/SensorMaritime-SensorBox/Sensorbox_firmware/GPSGyroAnalysisTool/GpsGyroAnalysisTool/GpsGyroAnalysisTool/Libraries/XMCLib/inc\xmc_gpio.h ****  *
 210:D:/Users/Beheerder/Desktop/GPSBox/SensorMaritime-SensorBox/Sensorbox_firmware/GPSGyroAnalysisTool/GpsGyroAnalysisTool/GpsGyroAnalysisTool/Libraries/XMCLib/inc\xmc_gpio.h ****  * @param  port	 Constant pointer pointing to GPIO port, to access hardware register Pn_OMR.
 211:D:/Users/Beheerder/Desktop/GPSBox/SensorMaritime-SensorBox/Sensorbox_firmware/GPSGyroAnalysisTool/GpsGyroAnalysisTool/GpsGyroAnalysisTool/Libraries/XMCLib/inc\xmc_gpio.h ****  * @param  pin	 Port pin number.
 212:D:/Users/Beheerder/Desktop/GPSBox/SensorMaritime-SensorBox/Sensorbox_firmware/GPSGyroAnalysisTool/GpsGyroAnalysisTool/GpsGyroAnalysisTool/Libraries/XMCLib/inc\xmc_gpio.h ****  * @param  level output level selection. Refer @ref XMC_GPIO_OUTPUT_LEVEL_t for valid values.
 213:D:/Users/Beheerder/Desktop/GPSBox/SensorMaritime-SensorBox/Sensorbox_firmware/GPSGyroAnalysisTool/GpsGyroAnalysisTool/GpsGyroAnalysisTool/Libraries/XMCLib/inc\xmc_gpio.h ****  *
 214:D:/Users/Beheerder/Desktop/GPSBox/SensorMaritime-SensorBox/Sensorbox_firmware/GPSGyroAnalysisTool/GpsGyroAnalysisTool/GpsGyroAnalysisTool/Libraries/XMCLib/inc\xmc_gpio.h ****  * @return None
 215:D:/Users/Beheerder/Desktop/GPSBox/SensorMaritime-SensorBox/Sensorbox_firmware/GPSGyroAnalysisTool/GpsGyroAnalysisTool/GpsGyroAnalysisTool/Libraries/XMCLib/inc\xmc_gpio.h ****  *
 216:D:/Users/Beheerder/Desktop/GPSBox/SensorMaritime-SensorBox/Sensorbox_firmware/GPSGyroAnalysisTool/GpsGyroAnalysisTool/GpsGyroAnalysisTool/Libraries/XMCLib/inc\xmc_gpio.h ****  * \par<b>Description:</b><br>
 217:D:/Users/Beheerder/Desktop/GPSBox/SensorMaritime-SensorBox/Sensorbox_firmware/GPSGyroAnalysisTool/GpsGyroAnalysisTool/GpsGyroAnalysisTool/Libraries/XMCLib/inc\xmc_gpio.h ****  * Set port pin output level to high or low.It configures hardware registers Pn_OMR.\a level is ini
 218:D:/Users/Beheerder/Desktop/GPSBox/SensorMaritime-SensorBox/Sensorbox_firmware/GPSGyroAnalysisTool/GpsGyroAnalysisTool/GpsGyroAnalysisTool/Libraries/XMCLib/inc\xmc_gpio.h ****  * configured during initialization in XMC_GPIO_Init(). Call this API to alter output level as need
 219:D:/Users/Beheerder/Desktop/GPSBox/SensorMaritime-SensorBox/Sensorbox_firmware/GPSGyroAnalysisTool/GpsGyroAnalysisTool/GpsGyroAnalysisTool/Libraries/XMCLib/inc\xmc_gpio.h ****  *
 220:D:/Users/Beheerder/Desktop/GPSBox/SensorMaritime-SensorBox/Sensorbox_firmware/GPSGyroAnalysisTool/GpsGyroAnalysisTool/GpsGyroAnalysisTool/Libraries/XMCLib/inc\xmc_gpio.h ****  * \par<b>Related APIs:</b><BR>
 221:D:/Users/Beheerder/Desktop/GPSBox/SensorMaritime-SensorBox/Sensorbox_firmware/GPSGyroAnalysisTool/GpsGyroAnalysisTool/GpsGyroAnalysisTool/Libraries/XMCLib/inc\xmc_gpio.h ****  *  XMC_GPIO_SetOutputHigh(), XMC_GPIO_SetOutputLow().
 222:D:/Users/Beheerder/Desktop/GPSBox/SensorMaritime-SensorBox/Sensorbox_firmware/GPSGyroAnalysisTool/GpsGyroAnalysisTool/GpsGyroAnalysisTool/Libraries/XMCLib/inc\xmc_gpio.h ****  *
 223:D:/Users/Beheerder/Desktop/GPSBox/SensorMaritime-SensorBox/Sensorbox_firmware/GPSGyroAnalysisTool/GpsGyroAnalysisTool/GpsGyroAnalysisTool/Libraries/XMCLib/inc\xmc_gpio.h ****  * \par<b>Note:</b><br>
 224:D:/Users/Beheerder/Desktop/GPSBox/SensorMaritime-SensorBox/Sensorbox_firmware/GPSGyroAnalysisTool/GpsGyroAnalysisTool/GpsGyroAnalysisTool/Libraries/XMCLib/inc\xmc_gpio.h ****  * Prior to this api, user has to configure port pin to output mode using XMC_GPIO_SetMode().
 225:D:/Users/Beheerder/Desktop/GPSBox/SensorMaritime-SensorBox/Sensorbox_firmware/GPSGyroAnalysisTool/GpsGyroAnalysisTool/GpsGyroAnalysisTool/Libraries/XMCLib/inc\xmc_gpio.h ****  *
 226:D:/Users/Beheerder/Desktop/GPSBox/SensorMaritime-SensorBox/Sensorbox_firmware/GPSGyroAnalysisTool/GpsGyroAnalysisTool/GpsGyroAnalysisTool/Libraries/XMCLib/inc\xmc_gpio.h ****  */
 227:D:/Users/Beheerder/Desktop/GPSBox/SensorMaritime-SensorBox/Sensorbox_firmware/GPSGyroAnalysisTool/GpsGyroAnalysisTool/GpsGyroAnalysisTool/Libraries/XMCLib/inc\xmc_gpio.h **** 
 228:D:/Users/Beheerder/Desktop/GPSBox/SensorMaritime-SensorBox/Sensorbox_firmware/GPSGyroAnalysisTool/GpsGyroAnalysisTool/GpsGyroAnalysisTool/Libraries/XMCLib/inc\xmc_gpio.h **** 
 229:D:/Users/Beheerder/Desktop/GPSBox/SensorMaritime-SensorBox/Sensorbox_firmware/GPSGyroAnalysisTool/GpsGyroAnalysisTool/GpsGyroAnalysisTool/Libraries/XMCLib/inc\xmc_gpio.h **** __STATIC_INLINE void XMC_GPIO_SetOutputLevel(XMC_GPIO_PORT_t *const port, const uint8_t pin, const 
 230:D:/Users/Beheerder/Desktop/GPSBox/SensorMaritime-SensorBox/Sensorbox_firmware/GPSGyroAnalysisTool/GpsGyroAnalysisTool/GpsGyroAnalysisTool/Libraries/XMCLib/inc\xmc_gpio.h **** {
 231:D:/Users/Beheerder/Desktop/GPSBox/SensorMaritime-SensorBox/Sensorbox_firmware/GPSGyroAnalysisTool/GpsGyroAnalysisTool/GpsGyroAnalysisTool/Libraries/XMCLib/inc\xmc_gpio.h ****   XMC_ASSERT("XMC_GPIO_SetOutputLevel: Invalid port", XMC_GPIO_CHECK_OUTPUT_PORT(port));
 232:D:/Users/Beheerder/Desktop/GPSBox/SensorMaritime-SensorBox/Sensorbox_firmware/GPSGyroAnalysisTool/GpsGyroAnalysisTool/GpsGyroAnalysisTool/Libraries/XMCLib/inc\xmc_gpio.h ****   XMC_ASSERT("XMC_GPIO_SetOutputLevel: Invalid output level", XMC_GPIO_CHECK_OUTPUT_LEVEL(level));
 233:D:/Users/Beheerder/Desktop/GPSBox/SensorMaritime-SensorBox/Sensorbox_firmware/GPSGyroAnalysisTool/GpsGyroAnalysisTool/GpsGyroAnalysisTool/Libraries/XMCLib/inc\xmc_gpio.h ****   
 234:D:/Users/Beheerder/Desktop/GPSBox/SensorMaritime-SensorBox/Sensorbox_firmware/GPSGyroAnalysisTool/GpsGyroAnalysisTool/GpsGyroAnalysisTool/Libraries/XMCLib/inc\xmc_gpio.h ****   port->OMR = (uint32_t)level << pin;
 235:D:/Users/Beheerder/Desktop/GPSBox/SensorMaritime-SensorBox/Sensorbox_firmware/GPSGyroAnalysisTool/GpsGyroAnalysisTool/GpsGyroAnalysisTool/Libraries/XMCLib/inc\xmc_gpio.h **** }
 236:D:/Users/Beheerder/Desktop/GPSBox/SensorMaritime-SensorBox/Sensorbox_firmware/GPSGyroAnalysisTool/GpsGyroAnalysisTool/GpsGyroAnalysisTool/Libraries/XMCLib/inc\xmc_gpio.h **** 
 237:D:/Users/Beheerder/Desktop/GPSBox/SensorMaritime-SensorBox/Sensorbox_firmware/GPSGyroAnalysisTool/GpsGyroAnalysisTool/GpsGyroAnalysisTool/Libraries/XMCLib/inc\xmc_gpio.h **** 
 238:D:/Users/Beheerder/Desktop/GPSBox/SensorMaritime-SensorBox/Sensorbox_firmware/GPSGyroAnalysisTool/GpsGyroAnalysisTool/GpsGyroAnalysisTool/Libraries/XMCLib/inc\xmc_gpio.h **** /**
 239:D:/Users/Beheerder/Desktop/GPSBox/SensorMaritime-SensorBox/Sensorbox_firmware/GPSGyroAnalysisTool/GpsGyroAnalysisTool/GpsGyroAnalysisTool/Libraries/XMCLib/inc\xmc_gpio.h ****  * @param  port constant pointer pointing to GPIO port, to access hardware register Pn_OMR.
 240:D:/Users/Beheerder/Desktop/GPSBox/SensorMaritime-SensorBox/Sensorbox_firmware/GPSGyroAnalysisTool/GpsGyroAnalysisTool/GpsGyroAnalysisTool/Libraries/XMCLib/inc\xmc_gpio.h ****  * @param  pin	Port pin number.
 241:D:/Users/Beheerder/Desktop/GPSBox/SensorMaritime-SensorBox/Sensorbox_firmware/GPSGyroAnalysisTool/GpsGyroAnalysisTool/GpsGyroAnalysisTool/Libraries/XMCLib/inc\xmc_gpio.h ****  *
 242:D:/Users/Beheerder/Desktop/GPSBox/SensorMaritime-SensorBox/Sensorbox_firmware/GPSGyroAnalysisTool/GpsGyroAnalysisTool/GpsGyroAnalysisTool/Libraries/XMCLib/inc\xmc_gpio.h ****  * @return None
 243:D:/Users/Beheerder/Desktop/GPSBox/SensorMaritime-SensorBox/Sensorbox_firmware/GPSGyroAnalysisTool/GpsGyroAnalysisTool/GpsGyroAnalysisTool/Libraries/XMCLib/inc\xmc_gpio.h ****  *
 244:D:/Users/Beheerder/Desktop/GPSBox/SensorMaritime-SensorBox/Sensorbox_firmware/GPSGyroAnalysisTool/GpsGyroAnalysisTool/GpsGyroAnalysisTool/Libraries/XMCLib/inc\xmc_gpio.h ****  * \par<b>Description:</b><br>
 245:D:/Users/Beheerder/Desktop/GPSBox/SensorMaritime-SensorBox/Sensorbox_firmware/GPSGyroAnalysisTool/GpsGyroAnalysisTool/GpsGyroAnalysisTool/Libraries/XMCLib/inc\xmc_gpio.h ****  *  Sets port pin output to high. It configures hardware registers Pn_OMR.
 246:D:/Users/Beheerder/Desktop/GPSBox/SensorMaritime-SensorBox/Sensorbox_firmware/GPSGyroAnalysisTool/GpsGyroAnalysisTool/GpsGyroAnalysisTool/Libraries/XMCLib/inc\xmc_gpio.h ****  *
 247:D:/Users/Beheerder/Desktop/GPSBox/SensorMaritime-SensorBox/Sensorbox_firmware/GPSGyroAnalysisTool/GpsGyroAnalysisTool/GpsGyroAnalysisTool/Libraries/XMCLib/inc\xmc_gpio.h ****  *  \par<b>Related APIs:</b><BR>
 248:D:/Users/Beheerder/Desktop/GPSBox/SensorMaritime-SensorBox/Sensorbox_firmware/GPSGyroAnalysisTool/GpsGyroAnalysisTool/GpsGyroAnalysisTool/Libraries/XMCLib/inc\xmc_gpio.h ****  *  XMC_GPIO_SetOutputLow()
 249:D:/Users/Beheerder/Desktop/GPSBox/SensorMaritime-SensorBox/Sensorbox_firmware/GPSGyroAnalysisTool/GpsGyroAnalysisTool/GpsGyroAnalysisTool/Libraries/XMCLib/inc\xmc_gpio.h ****  *
 250:D:/Users/Beheerder/Desktop/GPSBox/SensorMaritime-SensorBox/Sensorbox_firmware/GPSGyroAnalysisTool/GpsGyroAnalysisTool/GpsGyroAnalysisTool/Libraries/XMCLib/inc\xmc_gpio.h ****  * \par<b>Note:</b><br>
 251:D:/Users/Beheerder/Desktop/GPSBox/SensorMaritime-SensorBox/Sensorbox_firmware/GPSGyroAnalysisTool/GpsGyroAnalysisTool/GpsGyroAnalysisTool/Libraries/XMCLib/inc\xmc_gpio.h ****  * Prior to this api, user has to configure port pin to output mode using XMC_GPIO_SetMode().\n
 252:D:/Users/Beheerder/Desktop/GPSBox/SensorMaritime-SensorBox/Sensorbox_firmware/GPSGyroAnalysisTool/GpsGyroAnalysisTool/GpsGyroAnalysisTool/Libraries/XMCLib/inc\xmc_gpio.h ****  * Register Pn_OMR is virtual and does not contain any flip-flop. A read action delivers the value 
 253:D:/Users/Beheerder/Desktop/GPSBox/SensorMaritime-SensorBox/Sensorbox_firmware/GPSGyroAnalysisTool/GpsGyroAnalysisTool/GpsGyroAnalysisTool/Libraries/XMCLib/inc\xmc_gpio.h ****  *
 254:D:/Users/Beheerder/Desktop/GPSBox/SensorMaritime-SensorBox/Sensorbox_firmware/GPSGyroAnalysisTool/GpsGyroAnalysisTool/GpsGyroAnalysisTool/Libraries/XMCLib/inc\xmc_gpio.h ****  */
 255:D:/Users/Beheerder/Desktop/GPSBox/SensorMaritime-SensorBox/Sensorbox_firmware/GPSGyroAnalysisTool/GpsGyroAnalysisTool/GpsGyroAnalysisTool/Libraries/XMCLib/inc\xmc_gpio.h **** 
 256:D:/Users/Beheerder/Desktop/GPSBox/SensorMaritime-SensorBox/Sensorbox_firmware/GPSGyroAnalysisTool/GpsGyroAnalysisTool/GpsGyroAnalysisTool/Libraries/XMCLib/inc\xmc_gpio.h **** __STATIC_INLINE void XMC_GPIO_SetOutputHigh(XMC_GPIO_PORT_t *const port, const uint8_t pin)
 257:D:/Users/Beheerder/Desktop/GPSBox/SensorMaritime-SensorBox/Sensorbox_firmware/GPSGyroAnalysisTool/GpsGyroAnalysisTool/GpsGyroAnalysisTool/Libraries/XMCLib/inc\xmc_gpio.h **** {
  27              	 .loc 1 257 0
  28              	 .cfi_startproc
  29              	 
  30              	 
  31              	 
  32 0000 80B4     	 push {r7}
  33              	.LCFI0:
  34              	 .cfi_def_cfa_offset 4
  35              	 .cfi_offset 7,-4
  36 0002 83B0     	 sub sp,sp,#12
  37              	.LCFI1:
  38              	 .cfi_def_cfa_offset 16
  39 0004 00AF     	 add r7,sp,#0
  40              	.LCFI2:
  41              	 .cfi_def_cfa_register 7
  42 0006 7860     	 str r0,[r7,#4]
  43 0008 0B46     	 mov r3,r1
  44 000a FB70     	 strb r3,[r7,#3]
 258:D:/Users/Beheerder/Desktop/GPSBox/SensorMaritime-SensorBox/Sensorbox_firmware/GPSGyroAnalysisTool/GpsGyroAnalysisTool/GpsGyroAnalysisTool/Libraries/XMCLib/inc\xmc_gpio.h ****   XMC_ASSERT("XMC_GPIO_SetOutputHigh: Invalid port", XMC_GPIO_CHECK_OUTPUT_PORT(port));
 259:D:/Users/Beheerder/Desktop/GPSBox/SensorMaritime-SensorBox/Sensorbox_firmware/GPSGyroAnalysisTool/GpsGyroAnalysisTool/GpsGyroAnalysisTool/Libraries/XMCLib/inc\xmc_gpio.h **** 
 260:D:/Users/Beheerder/Desktop/GPSBox/SensorMaritime-SensorBox/Sensorbox_firmware/GPSGyroAnalysisTool/GpsGyroAnalysisTool/GpsGyroAnalysisTool/Libraries/XMCLib/inc\xmc_gpio.h ****   port->OMR = (uint32_t)0x1U << pin;
  45              	 .loc 1 260 0
  46 000c FB78     	 ldrb r3,[r7,#3]
  47 000e 0122     	 movs r2,#1
  48 0010 9A40     	 lsls r2,r2,r3
  49 0012 7B68     	 ldr r3,[r7,#4]
  50 0014 5A60     	 str r2,[r3,#4]
 261:D:/Users/Beheerder/Desktop/GPSBox/SensorMaritime-SensorBox/Sensorbox_firmware/GPSGyroAnalysisTool/GpsGyroAnalysisTool/GpsGyroAnalysisTool/Libraries/XMCLib/inc\xmc_gpio.h **** }
  51              	 .loc 1 261 0
  52 0016 0C37     	 adds r7,r7,#12
  53              	.LCFI3:
  54              	 .cfi_def_cfa_offset 4
  55 0018 BD46     	 mov sp,r7
  56              	.LCFI4:
  57              	 .cfi_def_cfa_register 13
  58              	 
  59 001a 5DF8047B 	 ldr r7,[sp],#4
  60              	.LCFI5:
  61              	 .cfi_restore 7
  62              	 .cfi_def_cfa_offset 0
  63 001e 7047     	 bx lr
  64              	 .cfi_endproc
  65              	.LFE180:
  67              	 .section .text.XMC_GPIO_SetOutputLow,"ax",%progbits
  68              	 .align 2
  69              	 .thumb
  70              	 .thumb_func
  72              	XMC_GPIO_SetOutputLow:
  73              	.LFB181:
 262:D:/Users/Beheerder/Desktop/GPSBox/SensorMaritime-SensorBox/Sensorbox_firmware/GPSGyroAnalysisTool/GpsGyroAnalysisTool/GpsGyroAnalysisTool/Libraries/XMCLib/inc\xmc_gpio.h **** 
 263:D:/Users/Beheerder/Desktop/GPSBox/SensorMaritime-SensorBox/Sensorbox_firmware/GPSGyroAnalysisTool/GpsGyroAnalysisTool/GpsGyroAnalysisTool/Libraries/XMCLib/inc\xmc_gpio.h **** /**
 264:D:/Users/Beheerder/Desktop/GPSBox/SensorMaritime-SensorBox/Sensorbox_firmware/GPSGyroAnalysisTool/GpsGyroAnalysisTool/GpsGyroAnalysisTool/Libraries/XMCLib/inc\xmc_gpio.h ****  *
 265:D:/Users/Beheerder/Desktop/GPSBox/SensorMaritime-SensorBox/Sensorbox_firmware/GPSGyroAnalysisTool/GpsGyroAnalysisTool/GpsGyroAnalysisTool/Libraries/XMCLib/inc\xmc_gpio.h ****  * @param  port	constant pointer pointing to GPIO port, to access hardware register Pn_OMR.
 266:D:/Users/Beheerder/Desktop/GPSBox/SensorMaritime-SensorBox/Sensorbox_firmware/GPSGyroAnalysisTool/GpsGyroAnalysisTool/GpsGyroAnalysisTool/Libraries/XMCLib/inc\xmc_gpio.h ****  * @param  pin	port pin number.
 267:D:/Users/Beheerder/Desktop/GPSBox/SensorMaritime-SensorBox/Sensorbox_firmware/GPSGyroAnalysisTool/GpsGyroAnalysisTool/GpsGyroAnalysisTool/Libraries/XMCLib/inc\xmc_gpio.h ****  *
 268:D:/Users/Beheerder/Desktop/GPSBox/SensorMaritime-SensorBox/Sensorbox_firmware/GPSGyroAnalysisTool/GpsGyroAnalysisTool/GpsGyroAnalysisTool/Libraries/XMCLib/inc\xmc_gpio.h ****  * @return  None
 269:D:/Users/Beheerder/Desktop/GPSBox/SensorMaritime-SensorBox/Sensorbox_firmware/GPSGyroAnalysisTool/GpsGyroAnalysisTool/GpsGyroAnalysisTool/Libraries/XMCLib/inc\xmc_gpio.h ****  *
 270:D:/Users/Beheerder/Desktop/GPSBox/SensorMaritime-SensorBox/Sensorbox_firmware/GPSGyroAnalysisTool/GpsGyroAnalysisTool/GpsGyroAnalysisTool/Libraries/XMCLib/inc\xmc_gpio.h ****  *\par<b>Description:</b><br>
 271:D:/Users/Beheerder/Desktop/GPSBox/SensorMaritime-SensorBox/Sensorbox_firmware/GPSGyroAnalysisTool/GpsGyroAnalysisTool/GpsGyroAnalysisTool/Libraries/XMCLib/inc\xmc_gpio.h ****  * Sets port pin output to low. It configures hardware registers Pn_OMR.\n
 272:D:/Users/Beheerder/Desktop/GPSBox/SensorMaritime-SensorBox/Sensorbox_firmware/GPSGyroAnalysisTool/GpsGyroAnalysisTool/GpsGyroAnalysisTool/Libraries/XMCLib/inc\xmc_gpio.h ****  *
 273:D:/Users/Beheerder/Desktop/GPSBox/SensorMaritime-SensorBox/Sensorbox_firmware/GPSGyroAnalysisTool/GpsGyroAnalysisTool/GpsGyroAnalysisTool/Libraries/XMCLib/inc\xmc_gpio.h ****  * \par<b>Related APIs:</b><BR>>
 274:D:/Users/Beheerder/Desktop/GPSBox/SensorMaritime-SensorBox/Sensorbox_firmware/GPSGyroAnalysisTool/GpsGyroAnalysisTool/GpsGyroAnalysisTool/Libraries/XMCLib/inc\xmc_gpio.h ****  * XMC_GPIO_SetOutputHigh()
 275:D:/Users/Beheerder/Desktop/GPSBox/SensorMaritime-SensorBox/Sensorbox_firmware/GPSGyroAnalysisTool/GpsGyroAnalysisTool/GpsGyroAnalysisTool/Libraries/XMCLib/inc\xmc_gpio.h ****  *
 276:D:/Users/Beheerder/Desktop/GPSBox/SensorMaritime-SensorBox/Sensorbox_firmware/GPSGyroAnalysisTool/GpsGyroAnalysisTool/GpsGyroAnalysisTool/Libraries/XMCLib/inc\xmc_gpio.h ****  *\par<b>Note:</b><br>
 277:D:/Users/Beheerder/Desktop/GPSBox/SensorMaritime-SensorBox/Sensorbox_firmware/GPSGyroAnalysisTool/GpsGyroAnalysisTool/GpsGyroAnalysisTool/Libraries/XMCLib/inc\xmc_gpio.h ****  * Prior to this api, user has to configure port pin to output mode using XMC_GPIO_SetMode().
 278:D:/Users/Beheerder/Desktop/GPSBox/SensorMaritime-SensorBox/Sensorbox_firmware/GPSGyroAnalysisTool/GpsGyroAnalysisTool/GpsGyroAnalysisTool/Libraries/XMCLib/inc\xmc_gpio.h ****  * Register Pn_OMR is virtual and does not contain any flip-flop. A read action delivers the value 
 279:D:/Users/Beheerder/Desktop/GPSBox/SensorMaritime-SensorBox/Sensorbox_firmware/GPSGyroAnalysisTool/GpsGyroAnalysisTool/GpsGyroAnalysisTool/Libraries/XMCLib/inc\xmc_gpio.h ****  *
 280:D:/Users/Beheerder/Desktop/GPSBox/SensorMaritime-SensorBox/Sensorbox_firmware/GPSGyroAnalysisTool/GpsGyroAnalysisTool/GpsGyroAnalysisTool/Libraries/XMCLib/inc\xmc_gpio.h ****  */
 281:D:/Users/Beheerder/Desktop/GPSBox/SensorMaritime-SensorBox/Sensorbox_firmware/GPSGyroAnalysisTool/GpsGyroAnalysisTool/GpsGyroAnalysisTool/Libraries/XMCLib/inc\xmc_gpio.h **** 
 282:D:/Users/Beheerder/Desktop/GPSBox/SensorMaritime-SensorBox/Sensorbox_firmware/GPSGyroAnalysisTool/GpsGyroAnalysisTool/GpsGyroAnalysisTool/Libraries/XMCLib/inc\xmc_gpio.h **** __STATIC_INLINE void XMC_GPIO_SetOutputLow(XMC_GPIO_PORT_t *const port, const uint8_t pin)
 283:D:/Users/Beheerder/Desktop/GPSBox/SensorMaritime-SensorBox/Sensorbox_firmware/GPSGyroAnalysisTool/GpsGyroAnalysisTool/GpsGyroAnalysisTool/Libraries/XMCLib/inc\xmc_gpio.h **** {
  74              	 .loc 1 283 0
  75              	 .cfi_startproc
  76              	 
  77              	 
  78              	 
  79 0000 80B4     	 push {r7}
  80              	.LCFI6:
  81              	 .cfi_def_cfa_offset 4
  82              	 .cfi_offset 7,-4
  83 0002 83B0     	 sub sp,sp,#12
  84              	.LCFI7:
  85              	 .cfi_def_cfa_offset 16
  86 0004 00AF     	 add r7,sp,#0
  87              	.LCFI8:
  88              	 .cfi_def_cfa_register 7
  89 0006 7860     	 str r0,[r7,#4]
  90 0008 0B46     	 mov r3,r1
  91 000a FB70     	 strb r3,[r7,#3]
 284:D:/Users/Beheerder/Desktop/GPSBox/SensorMaritime-SensorBox/Sensorbox_firmware/GPSGyroAnalysisTool/GpsGyroAnalysisTool/GpsGyroAnalysisTool/Libraries/XMCLib/inc\xmc_gpio.h ****   XMC_ASSERT("XMC_GPIO_SetOutputLow: Invalid port", XMC_GPIO_CHECK_OUTPUT_PORT(port));
 285:D:/Users/Beheerder/Desktop/GPSBox/SensorMaritime-SensorBox/Sensorbox_firmware/GPSGyroAnalysisTool/GpsGyroAnalysisTool/GpsGyroAnalysisTool/Libraries/XMCLib/inc\xmc_gpio.h **** 
 286:D:/Users/Beheerder/Desktop/GPSBox/SensorMaritime-SensorBox/Sensorbox_firmware/GPSGyroAnalysisTool/GpsGyroAnalysisTool/GpsGyroAnalysisTool/Libraries/XMCLib/inc\xmc_gpio.h ****   port->OMR = 0x10000U << pin;
  92              	 .loc 1 286 0
  93 000c FB78     	 ldrb r3,[r7,#3]
  94 000e 4FF48032 	 mov r2,#65536
  95 0012 9A40     	 lsls r2,r2,r3
  96 0014 7B68     	 ldr r3,[r7,#4]
  97 0016 5A60     	 str r2,[r3,#4]
 287:D:/Users/Beheerder/Desktop/GPSBox/SensorMaritime-SensorBox/Sensorbox_firmware/GPSGyroAnalysisTool/GpsGyroAnalysisTool/GpsGyroAnalysisTool/Libraries/XMCLib/inc\xmc_gpio.h **** }
  98              	 .loc 1 287 0
  99 0018 0C37     	 adds r7,r7,#12
 100              	.LCFI9:
 101              	 .cfi_def_cfa_offset 4
 102 001a BD46     	 mov sp,r7
 103              	.LCFI10:
 104              	 .cfi_def_cfa_register 13
 105              	 
 106 001c 5DF8047B 	 ldr r7,[sp],#4
 107              	.LCFI11:
 108              	 .cfi_restore 7
 109              	 .cfi_def_cfa_offset 0
 110 0020 7047     	 bx lr
 111              	 .cfi_endproc
 112              	.LFE181:
 114 0022 00BF     	 .section .text.XMC_USIC_CH_RXFIFO_Flush,"ax",%progbits
 115              	 .align 2
 116              	 .thumb
 117              	 .thumb_func
 119              	XMC_USIC_CH_RXFIFO_Flush:
 120              	.LFB238:
 121              	 .file 2 "D:/Users/Beheerder/Desktop/GPSBox/SensorMaritime-SensorBox/Sensorbox_firmware/GPSGyroAnalysisTool/GpsGyroAnalysisTool/GpsGyroAnalysisTool/Libraries/XMCLib/inc/xmc_usic.h"
   1:D:/Users/Beheerder/Desktop/GPSBox/SensorMaritime-SensorBox/Sensorbox_firmware/GPSGyroAnalysisTool/GpsGyroAnalysisTool/GpsGyroAnalysisTool/Libraries/XMCLib/inc\xmc_usic.h **** /**
   2:D:/Users/Beheerder/Desktop/GPSBox/SensorMaritime-SensorBox/Sensorbox_firmware/GPSGyroAnalysisTool/GpsGyroAnalysisTool/GpsGyroAnalysisTool/Libraries/XMCLib/inc\xmc_usic.h ****  * @file xmc_usic.h
   3:D:/Users/Beheerder/Desktop/GPSBox/SensorMaritime-SensorBox/Sensorbox_firmware/GPSGyroAnalysisTool/GpsGyroAnalysisTool/GpsGyroAnalysisTool/Libraries/XMCLib/inc\xmc_usic.h ****  * @date 2019-07-01
   4:D:/Users/Beheerder/Desktop/GPSBox/SensorMaritime-SensorBox/Sensorbox_firmware/GPSGyroAnalysisTool/GpsGyroAnalysisTool/GpsGyroAnalysisTool/Libraries/XMCLib/inc\xmc_usic.h ****  *
   5:D:/Users/Beheerder/Desktop/GPSBox/SensorMaritime-SensorBox/Sensorbox_firmware/GPSGyroAnalysisTool/GpsGyroAnalysisTool/GpsGyroAnalysisTool/Libraries/XMCLib/inc\xmc_usic.h ****  * @cond
   6:D:/Users/Beheerder/Desktop/GPSBox/SensorMaritime-SensorBox/Sensorbox_firmware/GPSGyroAnalysisTool/GpsGyroAnalysisTool/GpsGyroAnalysisTool/Libraries/XMCLib/inc\xmc_usic.h ****  **************************************************************************************************
   7:D:/Users/Beheerder/Desktop/GPSBox/SensorMaritime-SensorBox/Sensorbox_firmware/GPSGyroAnalysisTool/GpsGyroAnalysisTool/GpsGyroAnalysisTool/Libraries/XMCLib/inc\xmc_usic.h ****  * XMClib v2.1.24 - XMC Peripheral Driver Library 
   8:D:/Users/Beheerder/Desktop/GPSBox/SensorMaritime-SensorBox/Sensorbox_firmware/GPSGyroAnalysisTool/GpsGyroAnalysisTool/GpsGyroAnalysisTool/Libraries/XMCLib/inc\xmc_usic.h ****  *
   9:D:/Users/Beheerder/Desktop/GPSBox/SensorMaritime-SensorBox/Sensorbox_firmware/GPSGyroAnalysisTool/GpsGyroAnalysisTool/GpsGyroAnalysisTool/Libraries/XMCLib/inc\xmc_usic.h ****  * Copyright (c) 2015-2019, Infineon Technologies AG
  10:D:/Users/Beheerder/Desktop/GPSBox/SensorMaritime-SensorBox/Sensorbox_firmware/GPSGyroAnalysisTool/GpsGyroAnalysisTool/GpsGyroAnalysisTool/Libraries/XMCLib/inc\xmc_usic.h ****  * All rights reserved.                        
  11:D:/Users/Beheerder/Desktop/GPSBox/SensorMaritime-SensorBox/Sensorbox_firmware/GPSGyroAnalysisTool/GpsGyroAnalysisTool/GpsGyroAnalysisTool/Libraries/XMCLib/inc\xmc_usic.h ****  *                                             
  12:D:/Users/Beheerder/Desktop/GPSBox/SensorMaritime-SensorBox/Sensorbox_firmware/GPSGyroAnalysisTool/GpsGyroAnalysisTool/GpsGyroAnalysisTool/Libraries/XMCLib/inc\xmc_usic.h ****  * Redistribution and use in source and binary forms, with or without modification,are permitted pr
  13:D:/Users/Beheerder/Desktop/GPSBox/SensorMaritime-SensorBox/Sensorbox_firmware/GPSGyroAnalysisTool/GpsGyroAnalysisTool/GpsGyroAnalysisTool/Libraries/XMCLib/inc\xmc_usic.h ****  * following conditions are met:   
  14:D:/Users/Beheerder/Desktop/GPSBox/SensorMaritime-SensorBox/Sensorbox_firmware/GPSGyroAnalysisTool/GpsGyroAnalysisTool/GpsGyroAnalysisTool/Libraries/XMCLib/inc\xmc_usic.h ****  *                                                                              
  15:D:/Users/Beheerder/Desktop/GPSBox/SensorMaritime-SensorBox/Sensorbox_firmware/GPSGyroAnalysisTool/GpsGyroAnalysisTool/GpsGyroAnalysisTool/Libraries/XMCLib/inc\xmc_usic.h ****  * Redistributions of source code must retain the above copyright notice, this list of conditions a
  16:D:/Users/Beheerder/Desktop/GPSBox/SensorMaritime-SensorBox/Sensorbox_firmware/GPSGyroAnalysisTool/GpsGyroAnalysisTool/GpsGyroAnalysisTool/Libraries/XMCLib/inc\xmc_usic.h ****  * disclaimer.                        
  17:D:/Users/Beheerder/Desktop/GPSBox/SensorMaritime-SensorBox/Sensorbox_firmware/GPSGyroAnalysisTool/GpsGyroAnalysisTool/GpsGyroAnalysisTool/Libraries/XMCLib/inc\xmc_usic.h ****  * 
  18:D:/Users/Beheerder/Desktop/GPSBox/SensorMaritime-SensorBox/Sensorbox_firmware/GPSGyroAnalysisTool/GpsGyroAnalysisTool/GpsGyroAnalysisTool/Libraries/XMCLib/inc\xmc_usic.h ****  * Redistributions in binary form must reproduce the above copyright notice, this list of condition
  19:D:/Users/Beheerder/Desktop/GPSBox/SensorMaritime-SensorBox/Sensorbox_firmware/GPSGyroAnalysisTool/GpsGyroAnalysisTool/GpsGyroAnalysisTool/Libraries/XMCLib/inc\xmc_usic.h ****  * disclaimer in the documentation and/or other materials provided with the distribution.          
  20:D:/Users/Beheerder/Desktop/GPSBox/SensorMaritime-SensorBox/Sensorbox_firmware/GPSGyroAnalysisTool/GpsGyroAnalysisTool/GpsGyroAnalysisTool/Libraries/XMCLib/inc\xmc_usic.h ****  * 
  21:D:/Users/Beheerder/Desktop/GPSBox/SensorMaritime-SensorBox/Sensorbox_firmware/GPSGyroAnalysisTool/GpsGyroAnalysisTool/GpsGyroAnalysisTool/Libraries/XMCLib/inc\xmc_usic.h ****  * Neither the name of the copyright holders nor the names of its contributors may be used to endor
  22:D:/Users/Beheerder/Desktop/GPSBox/SensorMaritime-SensorBox/Sensorbox_firmware/GPSGyroAnalysisTool/GpsGyroAnalysisTool/GpsGyroAnalysisTool/Libraries/XMCLib/inc\xmc_usic.h ****  * products derived from this software without specific prior written permission.                  
  23:D:/Users/Beheerder/Desktop/GPSBox/SensorMaritime-SensorBox/Sensorbox_firmware/GPSGyroAnalysisTool/GpsGyroAnalysisTool/GpsGyroAnalysisTool/Libraries/XMCLib/inc\xmc_usic.h ****  *                                                                              
  24:D:/Users/Beheerder/Desktop/GPSBox/SensorMaritime-SensorBox/Sensorbox_firmware/GPSGyroAnalysisTool/GpsGyroAnalysisTool/GpsGyroAnalysisTool/Libraries/XMCLib/inc\xmc_usic.h ****  * THIS SOFTWARE IS PROVIDED BY THE COPYRIGHT HOLDERS AND CONTRIBUTORS "AS IS" AND ANY EXPRESS OR I
  25:D:/Users/Beheerder/Desktop/GPSBox/SensorMaritime-SensorBox/Sensorbox_firmware/GPSGyroAnalysisTool/GpsGyroAnalysisTool/GpsGyroAnalysisTool/Libraries/XMCLib/inc\xmc_usic.h ****  * INCLUDING, BUT NOT LIMITED TO, THE IMPLIED WARRANTIES OF MERCHANTABILITY AND FITNESS FOR A PARTI
  26:D:/Users/Beheerder/Desktop/GPSBox/SensorMaritime-SensorBox/Sensorbox_firmware/GPSGyroAnalysisTool/GpsGyroAnalysisTool/GpsGyroAnalysisTool/Libraries/XMCLib/inc\xmc_usic.h ****  * DISCLAIMED. IN NO EVENT SHALL THE COPYRIGHT HOLDER OR CONTRIBUTORS BE LIABLE  FOR ANY DIRECT, IN
  27:D:/Users/Beheerder/Desktop/GPSBox/SensorMaritime-SensorBox/Sensorbox_firmware/GPSGyroAnalysisTool/GpsGyroAnalysisTool/GpsGyroAnalysisTool/Libraries/XMCLib/inc\xmc_usic.h ****  * SPECIAL, EXEMPLARY, OR CONSEQUENTIAL DAMAGES (INCLUDING, BUT NOT LIMITED TO, PROCUREMENT OF SUBS
  28:D:/Users/Beheerder/Desktop/GPSBox/SensorMaritime-SensorBox/Sensorbox_firmware/GPSGyroAnalysisTool/GpsGyroAnalysisTool/GpsGyroAnalysisTool/Libraries/XMCLib/inc\xmc_usic.h ****  * SERVICES; LOSS OF USE, DATA, OR PROFITS; OR BUSINESS INTERRUPTION) HOWEVER CAUSED AND ON ANY THE
  29:D:/Users/Beheerder/Desktop/GPSBox/SensorMaritime-SensorBox/Sensorbox_firmware/GPSGyroAnalysisTool/GpsGyroAnalysisTool/GpsGyroAnalysisTool/Libraries/XMCLib/inc\xmc_usic.h ****  * WHETHER IN CONTRACT, STRICT LIABILITY,OR TORT (INCLUDING NEGLIGENCE OR OTHERWISE) ARISING IN ANY
  30:D:/Users/Beheerder/Desktop/GPSBox/SensorMaritime-SensorBox/Sensorbox_firmware/GPSGyroAnalysisTool/GpsGyroAnalysisTool/GpsGyroAnalysisTool/Libraries/XMCLib/inc\xmc_usic.h ****  * OF THIS SOFTWARE, EVEN IF ADVISED OF THE POSSIBILITY OF SUCH DAMAGE.                            
  31:D:/Users/Beheerder/Desktop/GPSBox/SensorMaritime-SensorBox/Sensorbox_firmware/GPSGyroAnalysisTool/GpsGyroAnalysisTool/GpsGyroAnalysisTool/Libraries/XMCLib/inc\xmc_usic.h ****  *                                                                              
  32:D:/Users/Beheerder/Desktop/GPSBox/SensorMaritime-SensorBox/Sensorbox_firmware/GPSGyroAnalysisTool/GpsGyroAnalysisTool/GpsGyroAnalysisTool/Libraries/XMCLib/inc\xmc_usic.h ****  * To improve the quality of the software, users are encouraged to share modifications, enhancement
  33:D:/Users/Beheerder/Desktop/GPSBox/SensorMaritime-SensorBox/Sensorbox_firmware/GPSGyroAnalysisTool/GpsGyroAnalysisTool/GpsGyroAnalysisTool/Libraries/XMCLib/inc\xmc_usic.h ****  * Infineon Technologies AG dave@infineon.com).                                                    
  34:D:/Users/Beheerder/Desktop/GPSBox/SensorMaritime-SensorBox/Sensorbox_firmware/GPSGyroAnalysisTool/GpsGyroAnalysisTool/GpsGyroAnalysisTool/Libraries/XMCLib/inc\xmc_usic.h ****  **************************************************************************************************
  35:D:/Users/Beheerder/Desktop/GPSBox/SensorMaritime-SensorBox/Sensorbox_firmware/GPSGyroAnalysisTool/GpsGyroAnalysisTool/GpsGyroAnalysisTool/Libraries/XMCLib/inc\xmc_usic.h ****  *
  36:D:/Users/Beheerder/Desktop/GPSBox/SensorMaritime-SensorBox/Sensorbox_firmware/GPSGyroAnalysisTool/GpsGyroAnalysisTool/GpsGyroAnalysisTool/Libraries/XMCLib/inc\xmc_usic.h ****  * Change History
  37:D:/Users/Beheerder/Desktop/GPSBox/SensorMaritime-SensorBox/Sensorbox_firmware/GPSGyroAnalysisTool/GpsGyroAnalysisTool/GpsGyroAnalysisTool/Libraries/XMCLib/inc\xmc_usic.h ****  * --------------
  38:D:/Users/Beheerder/Desktop/GPSBox/SensorMaritime-SensorBox/Sensorbox_firmware/GPSGyroAnalysisTool/GpsGyroAnalysisTool/GpsGyroAnalysisTool/Libraries/XMCLib/inc\xmc_usic.h ****  *
  39:D:/Users/Beheerder/Desktop/GPSBox/SensorMaritime-SensorBox/Sensorbox_firmware/GPSGyroAnalysisTool/GpsGyroAnalysisTool/GpsGyroAnalysisTool/Libraries/XMCLib/inc\xmc_usic.h ****  * 2015-02-20:
  40:D:/Users/Beheerder/Desktop/GPSBox/SensorMaritime-SensorBox/Sensorbox_firmware/GPSGyroAnalysisTool/GpsGyroAnalysisTool/GpsGyroAnalysisTool/Libraries/XMCLib/inc\xmc_usic.h ****  *     - Initial draft<br>
  41:D:/Users/Beheerder/Desktop/GPSBox/SensorMaritime-SensorBox/Sensorbox_firmware/GPSGyroAnalysisTool/GpsGyroAnalysisTool/GpsGyroAnalysisTool/Libraries/XMCLib/inc\xmc_usic.h ****  *     - Documentation improved <br>
  42:D:/Users/Beheerder/Desktop/GPSBox/SensorMaritime-SensorBox/Sensorbox_firmware/GPSGyroAnalysisTool/GpsGyroAnalysisTool/GpsGyroAnalysisTool/Libraries/XMCLib/inc\xmc_usic.h ****  *
  43:D:/Users/Beheerder/Desktop/GPSBox/SensorMaritime-SensorBox/Sensorbox_firmware/GPSGyroAnalysisTool/GpsGyroAnalysisTool/GpsGyroAnalysisTool/Libraries/XMCLib/inc\xmc_usic.h ****  * 2015-05-08:
  44:D:/Users/Beheerder/Desktop/GPSBox/SensorMaritime-SensorBox/Sensorbox_firmware/GPSGyroAnalysisTool/GpsGyroAnalysisTool/GpsGyroAnalysisTool/Libraries/XMCLib/inc\xmc_usic.h ****  *     - Added XMC_USIC_CH_SetInputTriggerCombinationMode() and XMC_USIC_CH_SetTransmitBufferStatus
  45:D:/Users/Beheerder/Desktop/GPSBox/SensorMaritime-SensorBox/Sensorbox_firmware/GPSGyroAnalysisTool/GpsGyroAnalysisTool/GpsGyroAnalysisTool/Libraries/XMCLib/inc\xmc_usic.h ****  *      
  46:D:/Users/Beheerder/Desktop/GPSBox/SensorMaritime-SensorBox/Sensorbox_firmware/GPSGyroAnalysisTool/GpsGyroAnalysisTool/GpsGyroAnalysisTool/Libraries/XMCLib/inc\xmc_usic.h ****  * 2015-06-20:
  47:D:/Users/Beheerder/Desktop/GPSBox/SensorMaritime-SensorBox/Sensorbox_firmware/GPSGyroAnalysisTool/GpsGyroAnalysisTool/GpsGyroAnalysisTool/Libraries/XMCLib/inc\xmc_usic.h ****  *     - Removed version macros and declaration of GetDriverVersion API
  48:D:/Users/Beheerder/Desktop/GPSBox/SensorMaritime-SensorBox/Sensorbox_firmware/GPSGyroAnalysisTool/GpsGyroAnalysisTool/GpsGyroAnalysisTool/Libraries/XMCLib/inc\xmc_usic.h ****  * 
  49:D:/Users/Beheerder/Desktop/GPSBox/SensorMaritime-SensorBox/Sensorbox_firmware/GPSGyroAnalysisTool/GpsGyroAnalysisTool/GpsGyroAnalysisTool/Libraries/XMCLib/inc\xmc_usic.h ****  * 2015-08-17:
  50:D:/Users/Beheerder/Desktop/GPSBox/SensorMaritime-SensorBox/Sensorbox_firmware/GPSGyroAnalysisTool/GpsGyroAnalysisTool/GpsGyroAnalysisTool/Libraries/XMCLib/inc\xmc_usic.h ****  *     - Bug fixed in XMC_USIC_CH_SetTransmitBufferStatus API. OR operator removed.
  51:D:/Users/Beheerder/Desktop/GPSBox/SensorMaritime-SensorBox/Sensorbox_firmware/GPSGyroAnalysisTool/GpsGyroAnalysisTool/GpsGyroAnalysisTool/Libraries/XMCLib/inc\xmc_usic.h ****  *
  52:D:/Users/Beheerder/Desktop/GPSBox/SensorMaritime-SensorBox/Sensorbox_firmware/GPSGyroAnalysisTool/GpsGyroAnalysisTool/GpsGyroAnalysisTool/Libraries/XMCLib/inc\xmc_usic.h ****  * 2015-08-24:
  53:D:/Users/Beheerder/Desktop/GPSBox/SensorMaritime-SensorBox/Sensorbox_firmware/GPSGyroAnalysisTool/GpsGyroAnalysisTool/GpsGyroAnalysisTool/Libraries/XMCLib/inc\xmc_usic.h ****  *     - Added APIs for enabling/disabling delay compensation XMC_USIC_CH_DisableDelayCompensation(
  54:D:/Users/Beheerder/Desktop/GPSBox/SensorMaritime-SensorBox/Sensorbox_firmware/GPSGyroAnalysisTool/GpsGyroAnalysisTool/GpsGyroAnalysisTool/Libraries/XMCLib/inc\xmc_usic.h ****  *       XMC_USIC_CH_DisableDelayCompensation()
  55:D:/Users/Beheerder/Desktop/GPSBox/SensorMaritime-SensorBox/Sensorbox_firmware/GPSGyroAnalysisTool/GpsGyroAnalysisTool/GpsGyroAnalysisTool/Libraries/XMCLib/inc\xmc_usic.h ****  *
  56:D:/Users/Beheerder/Desktop/GPSBox/SensorMaritime-SensorBox/Sensorbox_firmware/GPSGyroAnalysisTool/GpsGyroAnalysisTool/GpsGyroAnalysisTool/Libraries/XMCLib/inc\xmc_usic.h ****  * 2015-08-25:
  57:D:/Users/Beheerder/Desktop/GPSBox/SensorMaritime-SensorBox/Sensorbox_firmware/GPSGyroAnalysisTool/GpsGyroAnalysisTool/GpsGyroAnalysisTool/Libraries/XMCLib/inc\xmc_usic.h ****  *     - Added APIs for defining if the data shift unit input is derived
  58:D:/Users/Beheerder/Desktop/GPSBox/SensorMaritime-SensorBox/Sensorbox_firmware/GPSGyroAnalysisTool/GpsGyroAnalysisTool/GpsGyroAnalysisTool/Libraries/XMCLib/inc\xmc_usic.h ****  *       from the input data path DXn or from the selected protocol pre-processors: XMC_USIC_CH_Con
  59:D:/Users/Beheerder/Desktop/GPSBox/SensorMaritime-SensorBox/Sensorbox_firmware/GPSGyroAnalysisTool/GpsGyroAnalysisTool/GpsGyroAnalysisTool/Libraries/XMCLib/inc\xmc_usic.h ****  *       and XMC_USIC_CH_ConnectInputDataShiftToDataInput()
  60:D:/Users/Beheerder/Desktop/GPSBox/SensorMaritime-SensorBox/Sensorbox_firmware/GPSGyroAnalysisTool/GpsGyroAnalysisTool/GpsGyroAnalysisTool/Libraries/XMCLib/inc\xmc_usic.h ****  *
  61:D:/Users/Beheerder/Desktop/GPSBox/SensorMaritime-SensorBox/Sensorbox_firmware/GPSGyroAnalysisTool/GpsGyroAnalysisTool/GpsGyroAnalysisTool/Libraries/XMCLib/inc\xmc_usic.h ****  * 2015-08-27:
  62:D:/Users/Beheerder/Desktop/GPSBox/SensorMaritime-SensorBox/Sensorbox_firmware/GPSGyroAnalysisTool/GpsGyroAnalysisTool/GpsGyroAnalysisTool/Libraries/XMCLib/inc\xmc_usic.h ****  *     - Fixed bug in XMC_USIC_CH_BRG_CLOCK_SOURCE_DX1T value.
  63:D:/Users/Beheerder/Desktop/GPSBox/SensorMaritime-SensorBox/Sensorbox_firmware/GPSGyroAnalysisTool/GpsGyroAnalysisTool/GpsGyroAnalysisTool/Libraries/XMCLib/inc\xmc_usic.h ****  *     - Added APIs for direct TBUF access: XMC_USIC_CH_WriteToTBUF() and XMC_USIC_CH_WriteToTBUFTC
  64:D:/Users/Beheerder/Desktop/GPSBox/SensorMaritime-SensorBox/Sensorbox_firmware/GPSGyroAnalysisTool/GpsGyroAnalysisTool/GpsGyroAnalysisTool/Libraries/XMCLib/inc\xmc_usic.h ****  *     - Added APIs for external input for BRG configuration:XMC_USIC_CH_ConfigExternalInputSignalT
  65:D:/Users/Beheerder/Desktop/GPSBox/SensorMaritime-SensorBox/Sensorbox_firmware/GPSGyroAnalysisTool/GpsGyroAnalysisTool/GpsGyroAnalysisTool/Libraries/XMCLib/inc\xmc_usic.h ****  *
  66:D:/Users/Beheerder/Desktop/GPSBox/SensorMaritime-SensorBox/Sensorbox_firmware/GPSGyroAnalysisTool/GpsGyroAnalysisTool/GpsGyroAnalysisTool/Libraries/XMCLib/inc\xmc_usic.h ****  * 2015-08-28:
  67:D:/Users/Beheerder/Desktop/GPSBox/SensorMaritime-SensorBox/Sensorbox_firmware/GPSGyroAnalysisTool/GpsGyroAnalysisTool/GpsGyroAnalysisTool/Libraries/XMCLib/inc\xmc_usic.h ****  *     - Added API for enabling the transfer trigger unit to set bit TCSR.TE if the trigger signal 
  68:D:/Users/Beheerder/Desktop/GPSBox/SensorMaritime-SensorBox/Sensorbox_firmware/GPSGyroAnalysisTool/GpsGyroAnalysisTool/GpsGyroAnalysisTool/Libraries/XMCLib/inc\xmc_usic.h ****  *       Clear to Send (CTS) signal: XMC_USIC_CH_EnableTBUFDataValidTrigger() and XMC_USIC_CH_Disab
  69:D:/Users/Beheerder/Desktop/GPSBox/SensorMaritime-SensorBox/Sensorbox_firmware/GPSGyroAnalysisTool/GpsGyroAnalysisTool/GpsGyroAnalysisTool/Libraries/XMCLib/inc\xmc_usic.h ****  *
  70:D:/Users/Beheerder/Desktop/GPSBox/SensorMaritime-SensorBox/Sensorbox_firmware/GPSGyroAnalysisTool/GpsGyroAnalysisTool/GpsGyroAnalysisTool/Libraries/XMCLib/inc\xmc_usic.h ****  * 2016-03-09:
  71:D:/Users/Beheerder/Desktop/GPSBox/SensorMaritime-SensorBox/Sensorbox_firmware/GPSGyroAnalysisTool/GpsGyroAnalysisTool/GpsGyroAnalysisTool/Libraries/XMCLib/inc\xmc_usic.h ****  *     - Optimization of write only registers
  72:D:/Users/Beheerder/Desktop/GPSBox/SensorMaritime-SensorBox/Sensorbox_firmware/GPSGyroAnalysisTool/GpsGyroAnalysisTool/GpsGyroAnalysisTool/Libraries/XMCLib/inc\xmc_usic.h ****  *
  73:D:/Users/Beheerder/Desktop/GPSBox/SensorMaritime-SensorBox/Sensorbox_firmware/GPSGyroAnalysisTool/GpsGyroAnalysisTool/GpsGyroAnalysisTool/Libraries/XMCLib/inc\xmc_usic.h ****  * 2016-04-10:
  74:D:/Users/Beheerder/Desktop/GPSBox/SensorMaritime-SensorBox/Sensorbox_firmware/GPSGyroAnalysisTool/GpsGyroAnalysisTool/GpsGyroAnalysisTool/Libraries/XMCLib/inc\xmc_usic.h ****  *     - Added an API to put the data into FIFO when hardware port control is enabled: XMC_USIC_CH_
  75:D:/Users/Beheerder/Desktop/GPSBox/SensorMaritime-SensorBox/Sensorbox_firmware/GPSGyroAnalysisTool/GpsGyroAnalysisTool/GpsGyroAnalysisTool/Libraries/XMCLib/inc\xmc_usic.h ****  *
  76:D:/Users/Beheerder/Desktop/GPSBox/SensorMaritime-SensorBox/Sensorbox_firmware/GPSGyroAnalysisTool/GpsGyroAnalysisTool/GpsGyroAnalysisTool/Libraries/XMCLib/inc\xmc_usic.h ****  * 2017-02-10:
  77:D:/Users/Beheerder/Desktop/GPSBox/SensorMaritime-SensorBox/Sensorbox_firmware/GPSGyroAnalysisTool/GpsGyroAnalysisTool/GpsGyroAnalysisTool/Libraries/XMCLib/inc\xmc_usic.h ****  *     - Added XMC_USIC_CH_SetShiftDirection() to allow selection of shift direction of the data wo
  78:D:/Users/Beheerder/Desktop/GPSBox/SensorMaritime-SensorBox/Sensorbox_firmware/GPSGyroAnalysisTool/GpsGyroAnalysisTool/GpsGyroAnalysisTool/Libraries/XMCLib/inc\xmc_usic.h ****  *     - Added XMC_USIC_CH_GetCaptureTimerValue() and XMC_USIC_CH_SetFractionalDivider()
  79:D:/Users/Beheerder/Desktop/GPSBox/SensorMaritime-SensorBox/Sensorbox_firmware/GPSGyroAnalysisTool/GpsGyroAnalysisTool/GpsGyroAnalysisTool/Libraries/XMCLib/inc\xmc_usic.h ****  *
  80:D:/Users/Beheerder/Desktop/GPSBox/SensorMaritime-SensorBox/Sensorbox_firmware/GPSGyroAnalysisTool/GpsGyroAnalysisTool/GpsGyroAnalysisTool/Libraries/XMCLib/inc\xmc_usic.h ****  * 2017-09-08:
  81:D:/Users/Beheerder/Desktop/GPSBox/SensorMaritime-SensorBox/Sensorbox_firmware/GPSGyroAnalysisTool/GpsGyroAnalysisTool/GpsGyroAnalysisTool/Libraries/XMCLib/inc\xmc_usic.h ****  *     - Fixed value of macro XMC_USIC_CH_SHIFT_DIRECTION_MSB_FIRST used in XMC_USIC_CH_SetShiftDir
  82:D:/Users/Beheerder/Desktop/GPSBox/SensorMaritime-SensorBox/Sensorbox_firmware/GPSGyroAnalysisTool/GpsGyroAnalysisTool/GpsGyroAnalysisTool/Libraries/XMCLib/inc\xmc_usic.h ****  *
  83:D:/Users/Beheerder/Desktop/GPSBox/SensorMaritime-SensorBox/Sensorbox_firmware/GPSGyroAnalysisTool/GpsGyroAnalysisTool/GpsGyroAnalysisTool/Libraries/XMCLib/inc\xmc_usic.h ****  * 2018-09-29:
  84:D:/Users/Beheerder/Desktop/GPSBox/SensorMaritime-SensorBox/Sensorbox_firmware/GPSGyroAnalysisTool/GpsGyroAnalysisTool/GpsGyroAnalysisTool/Libraries/XMCLib/inc\xmc_usic.h ****  *     - Added XMC_USIC_CH_SetBaudrateEx which uses the integer divider instead of the fractional d
  85:D:/Users/Beheerder/Desktop/GPSBox/SensorMaritime-SensorBox/Sensorbox_firmware/GPSGyroAnalysisTool/GpsGyroAnalysisTool/GpsGyroAnalysisTool/Libraries/XMCLib/inc\xmc_usic.h ****  * 
  86:D:/Users/Beheerder/Desktop/GPSBox/SensorMaritime-SensorBox/Sensorbox_firmware/GPSGyroAnalysisTool/GpsGyroAnalysisTool/GpsGyroAnalysisTool/Libraries/XMCLib/inc\xmc_usic.h ****  * 2019-05-07:
  87:D:/Users/Beheerder/Desktop/GPSBox/SensorMaritime-SensorBox/Sensorbox_firmware/GPSGyroAnalysisTool/GpsGyroAnalysisTool/GpsGyroAnalysisTool/Libraries/XMCLib/inc\xmc_usic.h ****  *     - Added XMC_USIC_CH_GetBaudrate(), XMC_USIC_CH_GetSCLKFrequency() and XMC_USIC_CH_GetMCLKFre
  88:D:/Users/Beheerder/Desktop/GPSBox/SensorMaritime-SensorBox/Sensorbox_firmware/GPSGyroAnalysisTool/GpsGyroAnalysisTool/GpsGyroAnalysisTool/Libraries/XMCLib/inc\xmc_usic.h ****  *
  89:D:/Users/Beheerder/Desktop/GPSBox/SensorMaritime-SensorBox/Sensorbox_firmware/GPSGyroAnalysisTool/GpsGyroAnalysisTool/GpsGyroAnalysisTool/Libraries/XMCLib/inc\xmc_usic.h ****  * 2019-07-01:
  90:D:/Users/Beheerder/Desktop/GPSBox/SensorMaritime-SensorBox/Sensorbox_firmware/GPSGyroAnalysisTool/GpsGyroAnalysisTool/GpsGyroAnalysisTool/Libraries/XMCLib/inc\xmc_usic.h ****  *     - Changed XMC_USIC_CH_SetBaudrateEx() input parameter types
  91:D:/Users/Beheerder/Desktop/GPSBox/SensorMaritime-SensorBox/Sensorbox_firmware/GPSGyroAnalysisTool/GpsGyroAnalysisTool/GpsGyroAnalysisTool/Libraries/XMCLib/inc\xmc_usic.h ****  *
  92:D:/Users/Beheerder/Desktop/GPSBox/SensorMaritime-SensorBox/Sensorbox_firmware/GPSGyroAnalysisTool/GpsGyroAnalysisTool/GpsGyroAnalysisTool/Libraries/XMCLib/inc\xmc_usic.h ****  * @endcond
  93:D:/Users/Beheerder/Desktop/GPSBox/SensorMaritime-SensorBox/Sensorbox_firmware/GPSGyroAnalysisTool/GpsGyroAnalysisTool/GpsGyroAnalysisTool/Libraries/XMCLib/inc\xmc_usic.h ****  *
  94:D:/Users/Beheerder/Desktop/GPSBox/SensorMaritime-SensorBox/Sensorbox_firmware/GPSGyroAnalysisTool/GpsGyroAnalysisTool/GpsGyroAnalysisTool/Libraries/XMCLib/inc\xmc_usic.h ****  */
  95:D:/Users/Beheerder/Desktop/GPSBox/SensorMaritime-SensorBox/Sensorbox_firmware/GPSGyroAnalysisTool/GpsGyroAnalysisTool/GpsGyroAnalysisTool/Libraries/XMCLib/inc\xmc_usic.h **** 
  96:D:/Users/Beheerder/Desktop/GPSBox/SensorMaritime-SensorBox/Sensorbox_firmware/GPSGyroAnalysisTool/GpsGyroAnalysisTool/GpsGyroAnalysisTool/Libraries/XMCLib/inc\xmc_usic.h **** #ifndef XMC_USIC_H
  97:D:/Users/Beheerder/Desktop/GPSBox/SensorMaritime-SensorBox/Sensorbox_firmware/GPSGyroAnalysisTool/GpsGyroAnalysisTool/GpsGyroAnalysisTool/Libraries/XMCLib/inc\xmc_usic.h **** #define XMC_USIC_H
  98:D:/Users/Beheerder/Desktop/GPSBox/SensorMaritime-SensorBox/Sensorbox_firmware/GPSGyroAnalysisTool/GpsGyroAnalysisTool/GpsGyroAnalysisTool/Libraries/XMCLib/inc\xmc_usic.h **** /*******************************************************************************
  99:D:/Users/Beheerder/Desktop/GPSBox/SensorMaritime-SensorBox/Sensorbox_firmware/GPSGyroAnalysisTool/GpsGyroAnalysisTool/GpsGyroAnalysisTool/Libraries/XMCLib/inc\xmc_usic.h ****  * HEADER FILES
 100:D:/Users/Beheerder/Desktop/GPSBox/SensorMaritime-SensorBox/Sensorbox_firmware/GPSGyroAnalysisTool/GpsGyroAnalysisTool/GpsGyroAnalysisTool/Libraries/XMCLib/inc\xmc_usic.h ****  *******************************************************************************/
 101:D:/Users/Beheerder/Desktop/GPSBox/SensorMaritime-SensorBox/Sensorbox_firmware/GPSGyroAnalysisTool/GpsGyroAnalysisTool/GpsGyroAnalysisTool/Libraries/XMCLib/inc\xmc_usic.h **** 
 102:D:/Users/Beheerder/Desktop/GPSBox/SensorMaritime-SensorBox/Sensorbox_firmware/GPSGyroAnalysisTool/GpsGyroAnalysisTool/GpsGyroAnalysisTool/Libraries/XMCLib/inc\xmc_usic.h **** #include "xmc_common.h"
 103:D:/Users/Beheerder/Desktop/GPSBox/SensorMaritime-SensorBox/Sensorbox_firmware/GPSGyroAnalysisTool/GpsGyroAnalysisTool/GpsGyroAnalysisTool/Libraries/XMCLib/inc\xmc_usic.h **** 
 104:D:/Users/Beheerder/Desktop/GPSBox/SensorMaritime-SensorBox/Sensorbox_firmware/GPSGyroAnalysisTool/GpsGyroAnalysisTool/GpsGyroAnalysisTool/Libraries/XMCLib/inc\xmc_usic.h **** /**
 105:D:/Users/Beheerder/Desktop/GPSBox/SensorMaritime-SensorBox/Sensorbox_firmware/GPSGyroAnalysisTool/GpsGyroAnalysisTool/GpsGyroAnalysisTool/Libraries/XMCLib/inc\xmc_usic.h ****  * @addtogroup XMClib XMC Peripheral Library
 106:D:/Users/Beheerder/Desktop/GPSBox/SensorMaritime-SensorBox/Sensorbox_firmware/GPSGyroAnalysisTool/GpsGyroAnalysisTool/GpsGyroAnalysisTool/Libraries/XMCLib/inc\xmc_usic.h ****  * @{
 107:D:/Users/Beheerder/Desktop/GPSBox/SensorMaritime-SensorBox/Sensorbox_firmware/GPSGyroAnalysisTool/GpsGyroAnalysisTool/GpsGyroAnalysisTool/Libraries/XMCLib/inc\xmc_usic.h ****  */
 108:D:/Users/Beheerder/Desktop/GPSBox/SensorMaritime-SensorBox/Sensorbox_firmware/GPSGyroAnalysisTool/GpsGyroAnalysisTool/GpsGyroAnalysisTool/Libraries/XMCLib/inc\xmc_usic.h **** 
 109:D:/Users/Beheerder/Desktop/GPSBox/SensorMaritime-SensorBox/Sensorbox_firmware/GPSGyroAnalysisTool/GpsGyroAnalysisTool/GpsGyroAnalysisTool/Libraries/XMCLib/inc\xmc_usic.h **** /**
 110:D:/Users/Beheerder/Desktop/GPSBox/SensorMaritime-SensorBox/Sensorbox_firmware/GPSGyroAnalysisTool/GpsGyroAnalysisTool/GpsGyroAnalysisTool/Libraries/XMCLib/inc\xmc_usic.h ****  * @addtogroup USIC
 111:D:/Users/Beheerder/Desktop/GPSBox/SensorMaritime-SensorBox/Sensorbox_firmware/GPSGyroAnalysisTool/GpsGyroAnalysisTool/GpsGyroAnalysisTool/Libraries/XMCLib/inc\xmc_usic.h ****  * @brief Universal Serial Interface Channel(USIC) driver for serial communication.
 112:D:/Users/Beheerder/Desktop/GPSBox/SensorMaritime-SensorBox/Sensorbox_firmware/GPSGyroAnalysisTool/GpsGyroAnalysisTool/GpsGyroAnalysisTool/Libraries/XMCLib/inc\xmc_usic.h ****  *
 113:D:/Users/Beheerder/Desktop/GPSBox/SensorMaritime-SensorBox/Sensorbox_firmware/GPSGyroAnalysisTool/GpsGyroAnalysisTool/GpsGyroAnalysisTool/Libraries/XMCLib/inc\xmc_usic.h ****  * The Universal Serial Interface Channel(USIC) module is a flexible interface module
 114:D:/Users/Beheerder/Desktop/GPSBox/SensorMaritime-SensorBox/Sensorbox_firmware/GPSGyroAnalysisTool/GpsGyroAnalysisTool/GpsGyroAnalysisTool/Libraries/XMCLib/inc\xmc_usic.h ****  * covering several serial communication protocols. A USIC module contains two
 115:D:/Users/Beheerder/Desktop/GPSBox/SensorMaritime-SensorBox/Sensorbox_firmware/GPSGyroAnalysisTool/GpsGyroAnalysisTool/GpsGyroAnalysisTool/Libraries/XMCLib/inc\xmc_usic.h ****  * independent communication channels named USICx_CH0 and USICx_CH1, with x
 116:D:/Users/Beheerder/Desktop/GPSBox/SensorMaritime-SensorBox/Sensorbox_firmware/GPSGyroAnalysisTool/GpsGyroAnalysisTool/GpsGyroAnalysisTool/Libraries/XMCLib/inc\xmc_usic.h ****  * being the number of the USIC module. The user can program, during run-time, which protocol will 
 117:D:/Users/Beheerder/Desktop/GPSBox/SensorMaritime-SensorBox/Sensorbox_firmware/GPSGyroAnalysisTool/GpsGyroAnalysisTool/GpsGyroAnalysisTool/Libraries/XMCLib/inc\xmc_usic.h ****  * by each communication channel and which pins are used.
 118:D:/Users/Beheerder/Desktop/GPSBox/SensorMaritime-SensorBox/Sensorbox_firmware/GPSGyroAnalysisTool/GpsGyroAnalysisTool/GpsGyroAnalysisTool/Libraries/XMCLib/inc\xmc_usic.h ****  * The driver provides APIs, configuration structures and enumerations to configure common features
 119:D:/Users/Beheerder/Desktop/GPSBox/SensorMaritime-SensorBox/Sensorbox_firmware/GPSGyroAnalysisTool/GpsGyroAnalysisTool/GpsGyroAnalysisTool/Libraries/XMCLib/inc\xmc_usic.h ****  * communication protocols.
 120:D:/Users/Beheerder/Desktop/GPSBox/SensorMaritime-SensorBox/Sensorbox_firmware/GPSGyroAnalysisTool/GpsGyroAnalysisTool/GpsGyroAnalysisTool/Libraries/XMCLib/inc\xmc_usic.h ****  * 
 121:D:/Users/Beheerder/Desktop/GPSBox/SensorMaritime-SensorBox/Sensorbox_firmware/GPSGyroAnalysisTool/GpsGyroAnalysisTool/GpsGyroAnalysisTool/Libraries/XMCLib/inc\xmc_usic.h ****  * USIC driver features:
 122:D:/Users/Beheerder/Desktop/GPSBox/SensorMaritime-SensorBox/Sensorbox_firmware/GPSGyroAnalysisTool/GpsGyroAnalysisTool/GpsGyroAnalysisTool/Libraries/XMCLib/inc\xmc_usic.h ****  * -# Allows configuration of FIFO for transmit and receive functions.
 123:D:/Users/Beheerder/Desktop/GPSBox/SensorMaritime-SensorBox/Sensorbox_firmware/GPSGyroAnalysisTool/GpsGyroAnalysisTool/GpsGyroAnalysisTool/Libraries/XMCLib/inc\xmc_usic.h ****  * -# Provides a structure type XMC_USIC_CH_t to represent the USIC channel registers in a programm
 124:D:/Users/Beheerder/Desktop/GPSBox/SensorMaritime-SensorBox/Sensorbox_firmware/GPSGyroAnalysisTool/GpsGyroAnalysisTool/GpsGyroAnalysisTool/Libraries/XMCLib/inc\xmc_usic.h ****  friendly format.
 125:D:/Users/Beheerder/Desktop/GPSBox/SensorMaritime-SensorBox/Sensorbox_firmware/GPSGyroAnalysisTool/GpsGyroAnalysisTool/GpsGyroAnalysisTool/Libraries/XMCLib/inc\xmc_usic.h ****  * -# Allows configuration of automatic update for frame length, word length, slave select or slave
 126:D:/Users/Beheerder/Desktop/GPSBox/SensorMaritime-SensorBox/Sensorbox_firmware/GPSGyroAnalysisTool/GpsGyroAnalysisTool/GpsGyroAnalysisTool/Libraries/XMCLib/inc\xmc_usic.h ****  * -# Allows transmission of data to FIFO using XMC_USIC_CH_TXFIFO_PutData() and XMC_USIC_CH_TXFIFO
 127:D:/Users/Beheerder/Desktop/GPSBox/SensorMaritime-SensorBox/Sensorbox_firmware/GPSGyroAnalysisTool/GpsGyroAnalysisTool/GpsGyroAnalysisTool/Libraries/XMCLib/inc\xmc_usic.h ****  * -# Allows reading of received data in FIFO using XMC_USIC_CH_RXFIFO_GetData()
 128:D:/Users/Beheerder/Desktop/GPSBox/SensorMaritime-SensorBox/Sensorbox_firmware/GPSGyroAnalysisTool/GpsGyroAnalysisTool/GpsGyroAnalysisTool/Libraries/XMCLib/inc\xmc_usic.h ****  * -# Allows configuration of baudrate using XMC_USIC_CH_SetBaudrate()
 129:D:/Users/Beheerder/Desktop/GPSBox/SensorMaritime-SensorBox/Sensorbox_firmware/GPSGyroAnalysisTool/GpsGyroAnalysisTool/GpsGyroAnalysisTool/Libraries/XMCLib/inc\xmc_usic.h ****  * -# Provides API to trigger interrupts using XMC_USIC_CH_TriggerServiceRequest()
 130:D:/Users/Beheerder/Desktop/GPSBox/SensorMaritime-SensorBox/Sensorbox_firmware/GPSGyroAnalysisTool/GpsGyroAnalysisTool/GpsGyroAnalysisTool/Libraries/XMCLib/inc\xmc_usic.h ****  * @{
 131:D:/Users/Beheerder/Desktop/GPSBox/SensorMaritime-SensorBox/Sensorbox_firmware/GPSGyroAnalysisTool/GpsGyroAnalysisTool/GpsGyroAnalysisTool/Libraries/XMCLib/inc\xmc_usic.h ****  */
 132:D:/Users/Beheerder/Desktop/GPSBox/SensorMaritime-SensorBox/Sensorbox_firmware/GPSGyroAnalysisTool/GpsGyroAnalysisTool/GpsGyroAnalysisTool/Libraries/XMCLib/inc\xmc_usic.h **** 
 133:D:/Users/Beheerder/Desktop/GPSBox/SensorMaritime-SensorBox/Sensorbox_firmware/GPSGyroAnalysisTool/GpsGyroAnalysisTool/GpsGyroAnalysisTool/Libraries/XMCLib/inc\xmc_usic.h **** /*******************************************************************************
 134:D:/Users/Beheerder/Desktop/GPSBox/SensorMaritime-SensorBox/Sensorbox_firmware/GPSGyroAnalysisTool/GpsGyroAnalysisTool/GpsGyroAnalysisTool/Libraries/XMCLib/inc\xmc_usic.h ****  * MACROS
 135:D:/Users/Beheerder/Desktop/GPSBox/SensorMaritime-SensorBox/Sensorbox_firmware/GPSGyroAnalysisTool/GpsGyroAnalysisTool/GpsGyroAnalysisTool/Libraries/XMCLib/inc\xmc_usic.h ****  *******************************************************************************/
 136:D:/Users/Beheerder/Desktop/GPSBox/SensorMaritime-SensorBox/Sensorbox_firmware/GPSGyroAnalysisTool/GpsGyroAnalysisTool/GpsGyroAnalysisTool/Libraries/XMCLib/inc\xmc_usic.h **** 
 137:D:/Users/Beheerder/Desktop/GPSBox/SensorMaritime-SensorBox/Sensorbox_firmware/GPSGyroAnalysisTool/GpsGyroAnalysisTool/GpsGyroAnalysisTool/Libraries/XMCLib/inc\xmc_usic.h **** #define XMC_USIC0 ((XMC_USIC_t *)USIC0_BASE)			/**< USIC0 module base address */
 138:D:/Users/Beheerder/Desktop/GPSBox/SensorMaritime-SensorBox/Sensorbox_firmware/GPSGyroAnalysisTool/GpsGyroAnalysisTool/GpsGyroAnalysisTool/Libraries/XMCLib/inc\xmc_usic.h **** #define XMC_USIC0_CH0 ((XMC_USIC_CH_t *)USIC0_CH0_BASE)	/**< USIC0 channel 0 base address */
 139:D:/Users/Beheerder/Desktop/GPSBox/SensorMaritime-SensorBox/Sensorbox_firmware/GPSGyroAnalysisTool/GpsGyroAnalysisTool/GpsGyroAnalysisTool/Libraries/XMCLib/inc\xmc_usic.h **** #define XMC_USIC0_CH1 ((XMC_USIC_CH_t *)USIC0_CH1_BASE)	/**< USIC0 channel 1 base address */
 140:D:/Users/Beheerder/Desktop/GPSBox/SensorMaritime-SensorBox/Sensorbox_firmware/GPSGyroAnalysisTool/GpsGyroAnalysisTool/GpsGyroAnalysisTool/Libraries/XMCLib/inc\xmc_usic.h **** 
 141:D:/Users/Beheerder/Desktop/GPSBox/SensorMaritime-SensorBox/Sensorbox_firmware/GPSGyroAnalysisTool/GpsGyroAnalysisTool/GpsGyroAnalysisTool/Libraries/XMCLib/inc\xmc_usic.h **** #if defined(USIC1)
 142:D:/Users/Beheerder/Desktop/GPSBox/SensorMaritime-SensorBox/Sensorbox_firmware/GPSGyroAnalysisTool/GpsGyroAnalysisTool/GpsGyroAnalysisTool/Libraries/XMCLib/inc\xmc_usic.h **** #define XMC_USIC1 ((XMC_USIC_t *)USIC1_BASE)			/**< USIC1 module base address */
 143:D:/Users/Beheerder/Desktop/GPSBox/SensorMaritime-SensorBox/Sensorbox_firmware/GPSGyroAnalysisTool/GpsGyroAnalysisTool/GpsGyroAnalysisTool/Libraries/XMCLib/inc\xmc_usic.h **** #define XMC_USIC1_CH0 ((XMC_USIC_CH_t *)USIC1_CH0_BASE)	/**< USIC1 channel 0 base address */
 144:D:/Users/Beheerder/Desktop/GPSBox/SensorMaritime-SensorBox/Sensorbox_firmware/GPSGyroAnalysisTool/GpsGyroAnalysisTool/GpsGyroAnalysisTool/Libraries/XMCLib/inc\xmc_usic.h **** #define XMC_USIC1_CH1 ((XMC_USIC_CH_t *)USIC1_CH1_BASE)	/**< USIC1 channel 1 base address */
 145:D:/Users/Beheerder/Desktop/GPSBox/SensorMaritime-SensorBox/Sensorbox_firmware/GPSGyroAnalysisTool/GpsGyroAnalysisTool/GpsGyroAnalysisTool/Libraries/XMCLib/inc\xmc_usic.h **** #endif
 146:D:/Users/Beheerder/Desktop/GPSBox/SensorMaritime-SensorBox/Sensorbox_firmware/GPSGyroAnalysisTool/GpsGyroAnalysisTool/GpsGyroAnalysisTool/Libraries/XMCLib/inc\xmc_usic.h **** 
 147:D:/Users/Beheerder/Desktop/GPSBox/SensorMaritime-SensorBox/Sensorbox_firmware/GPSGyroAnalysisTool/GpsGyroAnalysisTool/GpsGyroAnalysisTool/Libraries/XMCLib/inc\xmc_usic.h **** #if defined(USIC2)
 148:D:/Users/Beheerder/Desktop/GPSBox/SensorMaritime-SensorBox/Sensorbox_firmware/GPSGyroAnalysisTool/GpsGyroAnalysisTool/GpsGyroAnalysisTool/Libraries/XMCLib/inc\xmc_usic.h **** #define XMC_USIC2 ((XMC_USIC_t *)USIC2_BASE)			/**< USIC2 module base address */
 149:D:/Users/Beheerder/Desktop/GPSBox/SensorMaritime-SensorBox/Sensorbox_firmware/GPSGyroAnalysisTool/GpsGyroAnalysisTool/GpsGyroAnalysisTool/Libraries/XMCLib/inc\xmc_usic.h **** #define XMC_USIC2_CH0 ((XMC_USIC_CH_t *)USIC2_CH0_BASE)	/**< USIC2 channel 0 base address */
 150:D:/Users/Beheerder/Desktop/GPSBox/SensorMaritime-SensorBox/Sensorbox_firmware/GPSGyroAnalysisTool/GpsGyroAnalysisTool/GpsGyroAnalysisTool/Libraries/XMCLib/inc\xmc_usic.h **** #define XMC_USIC2_CH1 ((XMC_USIC_CH_t *)USIC2_CH1_BASE)	/**< USIC2 channel 1 base address */
 151:D:/Users/Beheerder/Desktop/GPSBox/SensorMaritime-SensorBox/Sensorbox_firmware/GPSGyroAnalysisTool/GpsGyroAnalysisTool/GpsGyroAnalysisTool/Libraries/XMCLib/inc\xmc_usic.h **** #endif
 152:D:/Users/Beheerder/Desktop/GPSBox/SensorMaritime-SensorBox/Sensorbox_firmware/GPSGyroAnalysisTool/GpsGyroAnalysisTool/GpsGyroAnalysisTool/Libraries/XMCLib/inc\xmc_usic.h **** 
 153:D:/Users/Beheerder/Desktop/GPSBox/SensorMaritime-SensorBox/Sensorbox_firmware/GPSGyroAnalysisTool/GpsGyroAnalysisTool/GpsGyroAnalysisTool/Libraries/XMCLib/inc\xmc_usic.h **** #define USIC_CH_DXCR_DSEL_Msk  USIC_CH_DX0CR_DSEL_Msk   /**< Common mask for DSEL bitfield mask in 
 154:D:/Users/Beheerder/Desktop/GPSBox/SensorMaritime-SensorBox/Sensorbox_firmware/GPSGyroAnalysisTool/GpsGyroAnalysisTool/GpsGyroAnalysisTool/Libraries/XMCLib/inc\xmc_usic.h **** #define USIC_CH_DXCR_DSEL_Pos  USIC_CH_DX0CR_DSEL_Pos   /**< Common mask for DSEL bitfield position
 155:D:/Users/Beheerder/Desktop/GPSBox/SensorMaritime-SensorBox/Sensorbox_firmware/GPSGyroAnalysisTool/GpsGyroAnalysisTool/GpsGyroAnalysisTool/Libraries/XMCLib/inc\xmc_usic.h **** #define USIC_CH_DXCR_SFSEL_Pos USIC_CH_DX0CR_SFSEL_Pos  /**< Common mask for SFSEL bitfield positio
 156:D:/Users/Beheerder/Desktop/GPSBox/SensorMaritime-SensorBox/Sensorbox_firmware/GPSGyroAnalysisTool/GpsGyroAnalysisTool/GpsGyroAnalysisTool/Libraries/XMCLib/inc\xmc_usic.h **** #define USIC_CH_DXCR_SFSEL_Msk USIC_CH_DX0CR_SFSEL_Msk  /**< Common mask for SFSEL bitfield mask in
 157:D:/Users/Beheerder/Desktop/GPSBox/SensorMaritime-SensorBox/Sensorbox_firmware/GPSGyroAnalysisTool/GpsGyroAnalysisTool/GpsGyroAnalysisTool/Libraries/XMCLib/inc\xmc_usic.h **** #define USIC_CH_DXCR_DPOL_Msk  USIC_CH_DX0CR_DPOL_Msk   /**< Common mask for DPOL bitfield mask in 
 158:D:/Users/Beheerder/Desktop/GPSBox/SensorMaritime-SensorBox/Sensorbox_firmware/GPSGyroAnalysisTool/GpsGyroAnalysisTool/GpsGyroAnalysisTool/Libraries/XMCLib/inc\xmc_usic.h **** #define USIC_CH_DXCR_DFEN_Msk  USIC_CH_DX0CR_DFEN_Msk   /**< Common mask for DFEN bitfield mask in 
 159:D:/Users/Beheerder/Desktop/GPSBox/SensorMaritime-SensorBox/Sensorbox_firmware/GPSGyroAnalysisTool/GpsGyroAnalysisTool/GpsGyroAnalysisTool/Libraries/XMCLib/inc\xmc_usic.h **** #define USIC_CH_DXCR_DSEN_Msk  USIC_CH_DX0CR_DSEN_Msk   /**< Common mask for DSEN bitfield mask in 
 160:D:/Users/Beheerder/Desktop/GPSBox/SensorMaritime-SensorBox/Sensorbox_firmware/GPSGyroAnalysisTool/GpsGyroAnalysisTool/GpsGyroAnalysisTool/Libraries/XMCLib/inc\xmc_usic.h **** #define USIC_CH_DXCR_CM_Pos    USIC_CH_DX0CR_CM_Pos     /**< Common mask for CM bitfield position i
 161:D:/Users/Beheerder/Desktop/GPSBox/SensorMaritime-SensorBox/Sensorbox_firmware/GPSGyroAnalysisTool/GpsGyroAnalysisTool/GpsGyroAnalysisTool/Libraries/XMCLib/inc\xmc_usic.h **** #define USIC_CH_DXCR_CM_Msk    USIC_CH_DX0CR_CM_Msk     /**< Common mask for CM bitfield mask in DX
 162:D:/Users/Beheerder/Desktop/GPSBox/SensorMaritime-SensorBox/Sensorbox_firmware/GPSGyroAnalysisTool/GpsGyroAnalysisTool/GpsGyroAnalysisTool/Libraries/XMCLib/inc\xmc_usic.h **** #define USIC_CH_DXCR_INSW_Msk  USIC_CH_DX0CR_INSW_Msk   /**< Common mask for INSW bitfield mask in 
 163:D:/Users/Beheerder/Desktop/GPSBox/SensorMaritime-SensorBox/Sensorbox_firmware/GPSGyroAnalysisTool/GpsGyroAnalysisTool/GpsGyroAnalysisTool/Libraries/XMCLib/inc\xmc_usic.h **** #define USIC_CH_DXCR_INSW_pos  USIC_CH_DX0CR_INSW_Pos   /**< Common mask for INSW bitfield position
 164:D:/Users/Beheerder/Desktop/GPSBox/SensorMaritime-SensorBox/Sensorbox_firmware/GPSGyroAnalysisTool/GpsGyroAnalysisTool/GpsGyroAnalysisTool/Libraries/XMCLib/inc\xmc_usic.h **** 
 165:D:/Users/Beheerder/Desktop/GPSBox/SensorMaritime-SensorBox/Sensorbox_firmware/GPSGyroAnalysisTool/GpsGyroAnalysisTool/GpsGyroAnalysisTool/Libraries/XMCLib/inc\xmc_usic.h **** #if UC_FAMILY == XMC1
 166:D:/Users/Beheerder/Desktop/GPSBox/SensorMaritime-SensorBox/Sensorbox_firmware/GPSGyroAnalysisTool/GpsGyroAnalysisTool/GpsGyroAnalysisTool/Libraries/XMCLib/inc\xmc_usic.h ****  #include "xmc1_usic_map.h"
 167:D:/Users/Beheerder/Desktop/GPSBox/SensorMaritime-SensorBox/Sensorbox_firmware/GPSGyroAnalysisTool/GpsGyroAnalysisTool/GpsGyroAnalysisTool/Libraries/XMCLib/inc\xmc_usic.h **** #endif
 168:D:/Users/Beheerder/Desktop/GPSBox/SensorMaritime-SensorBox/Sensorbox_firmware/GPSGyroAnalysisTool/GpsGyroAnalysisTool/GpsGyroAnalysisTool/Libraries/XMCLib/inc\xmc_usic.h **** 
 169:D:/Users/Beheerder/Desktop/GPSBox/SensorMaritime-SensorBox/Sensorbox_firmware/GPSGyroAnalysisTool/GpsGyroAnalysisTool/GpsGyroAnalysisTool/Libraries/XMCLib/inc\xmc_usic.h **** #if UC_FAMILY == XMC4
 170:D:/Users/Beheerder/Desktop/GPSBox/SensorMaritime-SensorBox/Sensorbox_firmware/GPSGyroAnalysisTool/GpsGyroAnalysisTool/GpsGyroAnalysisTool/Libraries/XMCLib/inc\xmc_usic.h ****  #include "xmc4_usic_map.h"
 171:D:/Users/Beheerder/Desktop/GPSBox/SensorMaritime-SensorBox/Sensorbox_firmware/GPSGyroAnalysisTool/GpsGyroAnalysisTool/GpsGyroAnalysisTool/Libraries/XMCLib/inc\xmc_usic.h **** #endif
 172:D:/Users/Beheerder/Desktop/GPSBox/SensorMaritime-SensorBox/Sensorbox_firmware/GPSGyroAnalysisTool/GpsGyroAnalysisTool/GpsGyroAnalysisTool/Libraries/XMCLib/inc\xmc_usic.h **** 
 173:D:/Users/Beheerder/Desktop/GPSBox/SensorMaritime-SensorBox/Sensorbox_firmware/GPSGyroAnalysisTool/GpsGyroAnalysisTool/GpsGyroAnalysisTool/Libraries/XMCLib/inc\xmc_usic.h **** /*******************************************************************************
 174:D:/Users/Beheerder/Desktop/GPSBox/SensorMaritime-SensorBox/Sensorbox_firmware/GPSGyroAnalysisTool/GpsGyroAnalysisTool/GpsGyroAnalysisTool/Libraries/XMCLib/inc\xmc_usic.h ****  * ENUMS
 175:D:/Users/Beheerder/Desktop/GPSBox/SensorMaritime-SensorBox/Sensorbox_firmware/GPSGyroAnalysisTool/GpsGyroAnalysisTool/GpsGyroAnalysisTool/Libraries/XMCLib/inc\xmc_usic.h ****  *******************************************************************************/
 176:D:/Users/Beheerder/Desktop/GPSBox/SensorMaritime-SensorBox/Sensorbox_firmware/GPSGyroAnalysisTool/GpsGyroAnalysisTool/GpsGyroAnalysisTool/Libraries/XMCLib/inc\xmc_usic.h **** 
 177:D:/Users/Beheerder/Desktop/GPSBox/SensorMaritime-SensorBox/Sensorbox_firmware/GPSGyroAnalysisTool/GpsGyroAnalysisTool/GpsGyroAnalysisTool/Libraries/XMCLib/inc\xmc_usic.h **** /**
 178:D:/Users/Beheerder/Desktop/GPSBox/SensorMaritime-SensorBox/Sensorbox_firmware/GPSGyroAnalysisTool/GpsGyroAnalysisTool/GpsGyroAnalysisTool/Libraries/XMCLib/inc\xmc_usic.h ****  * USIC channel driver status
 179:D:/Users/Beheerder/Desktop/GPSBox/SensorMaritime-SensorBox/Sensorbox_firmware/GPSGyroAnalysisTool/GpsGyroAnalysisTool/GpsGyroAnalysisTool/Libraries/XMCLib/inc\xmc_usic.h ****  */
 180:D:/Users/Beheerder/Desktop/GPSBox/SensorMaritime-SensorBox/Sensorbox_firmware/GPSGyroAnalysisTool/GpsGyroAnalysisTool/GpsGyroAnalysisTool/Libraries/XMCLib/inc\xmc_usic.h **** typedef enum XMC_USIC_CH_STATUS
 181:D:/Users/Beheerder/Desktop/GPSBox/SensorMaritime-SensorBox/Sensorbox_firmware/GPSGyroAnalysisTool/GpsGyroAnalysisTool/GpsGyroAnalysisTool/Libraries/XMCLib/inc\xmc_usic.h **** {
 182:D:/Users/Beheerder/Desktop/GPSBox/SensorMaritime-SensorBox/Sensorbox_firmware/GPSGyroAnalysisTool/GpsGyroAnalysisTool/GpsGyroAnalysisTool/Libraries/XMCLib/inc\xmc_usic.h ****   XMC_USIC_CH_STATUS_OK,    /**< USIC driver status : OK */
 183:D:/Users/Beheerder/Desktop/GPSBox/SensorMaritime-SensorBox/Sensorbox_firmware/GPSGyroAnalysisTool/GpsGyroAnalysisTool/GpsGyroAnalysisTool/Libraries/XMCLib/inc\xmc_usic.h ****   XMC_USIC_CH_STATUS_ERROR, /**< USIC driver status : ERROR */
 184:D:/Users/Beheerder/Desktop/GPSBox/SensorMaritime-SensorBox/Sensorbox_firmware/GPSGyroAnalysisTool/GpsGyroAnalysisTool/GpsGyroAnalysisTool/Libraries/XMCLib/inc\xmc_usic.h ****   XMC_USIC_CH_STATUS_BUSY   /**< USIC driver status : BUSY */
 185:D:/Users/Beheerder/Desktop/GPSBox/SensorMaritime-SensorBox/Sensorbox_firmware/GPSGyroAnalysisTool/GpsGyroAnalysisTool/GpsGyroAnalysisTool/Libraries/XMCLib/inc\xmc_usic.h **** } XMC_USIC_CH_STATUS_t;
 186:D:/Users/Beheerder/Desktop/GPSBox/SensorMaritime-SensorBox/Sensorbox_firmware/GPSGyroAnalysisTool/GpsGyroAnalysisTool/GpsGyroAnalysisTool/Libraries/XMCLib/inc\xmc_usic.h **** 
 187:D:/Users/Beheerder/Desktop/GPSBox/SensorMaritime-SensorBox/Sensorbox_firmware/GPSGyroAnalysisTool/GpsGyroAnalysisTool/GpsGyroAnalysisTool/Libraries/XMCLib/inc\xmc_usic.h **** /**
 188:D:/Users/Beheerder/Desktop/GPSBox/SensorMaritime-SensorBox/Sensorbox_firmware/GPSGyroAnalysisTool/GpsGyroAnalysisTool/GpsGyroAnalysisTool/Libraries/XMCLib/inc\xmc_usic.h **** * USIC channel kernel mode
 189:D:/Users/Beheerder/Desktop/GPSBox/SensorMaritime-SensorBox/Sensorbox_firmware/GPSGyroAnalysisTool/GpsGyroAnalysisTool/GpsGyroAnalysisTool/Libraries/XMCLib/inc\xmc_usic.h **** */
 190:D:/Users/Beheerder/Desktop/GPSBox/SensorMaritime-SensorBox/Sensorbox_firmware/GPSGyroAnalysisTool/GpsGyroAnalysisTool/GpsGyroAnalysisTool/Libraries/XMCLib/inc\xmc_usic.h **** typedef enum XMC_USIC_CH_KERNEL_MODE
 191:D:/Users/Beheerder/Desktop/GPSBox/SensorMaritime-SensorBox/Sensorbox_firmware/GPSGyroAnalysisTool/GpsGyroAnalysisTool/GpsGyroAnalysisTool/Libraries/XMCLib/inc\xmc_usic.h **** {
 192:D:/Users/Beheerder/Desktop/GPSBox/SensorMaritime-SensorBox/Sensorbox_firmware/GPSGyroAnalysisTool/GpsGyroAnalysisTool/GpsGyroAnalysisTool/Libraries/XMCLib/inc\xmc_usic.h ****   XMC_USIC_CH_KERNEL_MODE_RUN_0  = 0x0UL,  /**< Run mode 0 (transmission and reception possible)*/
 193:D:/Users/Beheerder/Desktop/GPSBox/SensorMaritime-SensorBox/Sensorbox_firmware/GPSGyroAnalysisTool/GpsGyroAnalysisTool/GpsGyroAnalysisTool/Libraries/XMCLib/inc\xmc_usic.h ****   XMC_USIC_CH_KERNEL_MODE_RUN_1  = 0x1UL << USIC_CH_KSCFG_NOMCFG_Pos,  /**< Run mode 1 (transmissio
 194:D:/Users/Beheerder/Desktop/GPSBox/SensorMaritime-SensorBox/Sensorbox_firmware/GPSGyroAnalysisTool/GpsGyroAnalysisTool/GpsGyroAnalysisTool/Libraries/XMCLib/inc\xmc_usic.h ****   XMC_USIC_CH_KERNEL_MODE_STOP_0 = 0x2UL << USIC_CH_KSCFG_NOMCFG_Pos,  /**< Stop mode 0 (no transmi
 195:D:/Users/Beheerder/Desktop/GPSBox/SensorMaritime-SensorBox/Sensorbox_firmware/GPSGyroAnalysisTool/GpsGyroAnalysisTool/GpsGyroAnalysisTool/Libraries/XMCLib/inc\xmc_usic.h ****   XMC_USIC_CH_KERNEL_MODE_STOP_1 = 0x3UL << USIC_CH_KSCFG_NOMCFG_Pos   /**< Stop mode 1 (both trans
 196:D:/Users/Beheerder/Desktop/GPSBox/SensorMaritime-SensorBox/Sensorbox_firmware/GPSGyroAnalysisTool/GpsGyroAnalysisTool/GpsGyroAnalysisTool/Libraries/XMCLib/inc\xmc_usic.h **** } XMC_USIC_CH_KERNEL_MODE_t;
 197:D:/Users/Beheerder/Desktop/GPSBox/SensorMaritime-SensorBox/Sensorbox_firmware/GPSGyroAnalysisTool/GpsGyroAnalysisTool/GpsGyroAnalysisTool/Libraries/XMCLib/inc\xmc_usic.h **** 
 198:D:/Users/Beheerder/Desktop/GPSBox/SensorMaritime-SensorBox/Sensorbox_firmware/GPSGyroAnalysisTool/GpsGyroAnalysisTool/GpsGyroAnalysisTool/Libraries/XMCLib/inc\xmc_usic.h **** /**
 199:D:/Users/Beheerder/Desktop/GPSBox/SensorMaritime-SensorBox/Sensorbox_firmware/GPSGyroAnalysisTool/GpsGyroAnalysisTool/GpsGyroAnalysisTool/Libraries/XMCLib/inc\xmc_usic.h ****  * USIC channel operating mode
 200:D:/Users/Beheerder/Desktop/GPSBox/SensorMaritime-SensorBox/Sensorbox_firmware/GPSGyroAnalysisTool/GpsGyroAnalysisTool/GpsGyroAnalysisTool/Libraries/XMCLib/inc\xmc_usic.h ****  */
 201:D:/Users/Beheerder/Desktop/GPSBox/SensorMaritime-SensorBox/Sensorbox_firmware/GPSGyroAnalysisTool/GpsGyroAnalysisTool/GpsGyroAnalysisTool/Libraries/XMCLib/inc\xmc_usic.h **** typedef enum XMC_USIC_CH_OPERATING_MODE
 202:D:/Users/Beheerder/Desktop/GPSBox/SensorMaritime-SensorBox/Sensorbox_firmware/GPSGyroAnalysisTool/GpsGyroAnalysisTool/GpsGyroAnalysisTool/Libraries/XMCLib/inc\xmc_usic.h **** {
 203:D:/Users/Beheerder/Desktop/GPSBox/SensorMaritime-SensorBox/Sensorbox_firmware/GPSGyroAnalysisTool/GpsGyroAnalysisTool/GpsGyroAnalysisTool/Libraries/XMCLib/inc\xmc_usic.h ****   XMC_USIC_CH_OPERATING_MODE_IDLE = 0x0UL, /**< USIC channel idle */
 204:D:/Users/Beheerder/Desktop/GPSBox/SensorMaritime-SensorBox/Sensorbox_firmware/GPSGyroAnalysisTool/GpsGyroAnalysisTool/GpsGyroAnalysisTool/Libraries/XMCLib/inc\xmc_usic.h ****   XMC_USIC_CH_OPERATING_MODE_SPI  = 0x1UL << USIC_CH_CCR_MODE_Pos, /**< SPI mode */
 205:D:/Users/Beheerder/Desktop/GPSBox/SensorMaritime-SensorBox/Sensorbox_firmware/GPSGyroAnalysisTool/GpsGyroAnalysisTool/GpsGyroAnalysisTool/Libraries/XMCLib/inc\xmc_usic.h ****   XMC_USIC_CH_OPERATING_MODE_UART = 0x2UL << USIC_CH_CCR_MODE_Pos, /**< UART mode */
 206:D:/Users/Beheerder/Desktop/GPSBox/SensorMaritime-SensorBox/Sensorbox_firmware/GPSGyroAnalysisTool/GpsGyroAnalysisTool/GpsGyroAnalysisTool/Libraries/XMCLib/inc\xmc_usic.h ****   XMC_USIC_CH_OPERATING_MODE_I2S  = 0x3UL << USIC_CH_CCR_MODE_Pos, /**< I2S mode */
 207:D:/Users/Beheerder/Desktop/GPSBox/SensorMaritime-SensorBox/Sensorbox_firmware/GPSGyroAnalysisTool/GpsGyroAnalysisTool/GpsGyroAnalysisTool/Libraries/XMCLib/inc\xmc_usic.h ****   XMC_USIC_CH_OPERATING_MODE_I2C  = 0x4UL << USIC_CH_CCR_MODE_Pos  /**< I2C mode */
 208:D:/Users/Beheerder/Desktop/GPSBox/SensorMaritime-SensorBox/Sensorbox_firmware/GPSGyroAnalysisTool/GpsGyroAnalysisTool/GpsGyroAnalysisTool/Libraries/XMCLib/inc\xmc_usic.h **** } XMC_USIC_CH_OPERATING_MODE_t;
 209:D:/Users/Beheerder/Desktop/GPSBox/SensorMaritime-SensorBox/Sensorbox_firmware/GPSGyroAnalysisTool/GpsGyroAnalysisTool/GpsGyroAnalysisTool/Libraries/XMCLib/inc\xmc_usic.h **** 
 210:D:/Users/Beheerder/Desktop/GPSBox/SensorMaritime-SensorBox/Sensorbox_firmware/GPSGyroAnalysisTool/GpsGyroAnalysisTool/GpsGyroAnalysisTool/Libraries/XMCLib/inc\xmc_usic.h **** /**
 211:D:/Users/Beheerder/Desktop/GPSBox/SensorMaritime-SensorBox/Sensorbox_firmware/GPSGyroAnalysisTool/GpsGyroAnalysisTool/GpsGyroAnalysisTool/Libraries/XMCLib/inc\xmc_usic.h ****  * USIC channel inputs
 212:D:/Users/Beheerder/Desktop/GPSBox/SensorMaritime-SensorBox/Sensorbox_firmware/GPSGyroAnalysisTool/GpsGyroAnalysisTool/GpsGyroAnalysisTool/Libraries/XMCLib/inc\xmc_usic.h ****  */
 213:D:/Users/Beheerder/Desktop/GPSBox/SensorMaritime-SensorBox/Sensorbox_firmware/GPSGyroAnalysisTool/GpsGyroAnalysisTool/GpsGyroAnalysisTool/Libraries/XMCLib/inc\xmc_usic.h **** typedef enum XMC_USIC_CH_INPUT
 214:D:/Users/Beheerder/Desktop/GPSBox/SensorMaritime-SensorBox/Sensorbox_firmware/GPSGyroAnalysisTool/GpsGyroAnalysisTool/GpsGyroAnalysisTool/Libraries/XMCLib/inc\xmc_usic.h **** {
 215:D:/Users/Beheerder/Desktop/GPSBox/SensorMaritime-SensorBox/Sensorbox_firmware/GPSGyroAnalysisTool/GpsGyroAnalysisTool/GpsGyroAnalysisTool/Libraries/XMCLib/inc\xmc_usic.h ****   XMC_USIC_CH_INPUT_DX0, /**< DX0 input */
 216:D:/Users/Beheerder/Desktop/GPSBox/SensorMaritime-SensorBox/Sensorbox_firmware/GPSGyroAnalysisTool/GpsGyroAnalysisTool/GpsGyroAnalysisTool/Libraries/XMCLib/inc\xmc_usic.h ****   XMC_USIC_CH_INPUT_DX1, /**< DX1 input */
 217:D:/Users/Beheerder/Desktop/GPSBox/SensorMaritime-SensorBox/Sensorbox_firmware/GPSGyroAnalysisTool/GpsGyroAnalysisTool/GpsGyroAnalysisTool/Libraries/XMCLib/inc\xmc_usic.h ****   XMC_USIC_CH_INPUT_DX2, /**< DX2 input */
 218:D:/Users/Beheerder/Desktop/GPSBox/SensorMaritime-SensorBox/Sensorbox_firmware/GPSGyroAnalysisTool/GpsGyroAnalysisTool/GpsGyroAnalysisTool/Libraries/XMCLib/inc\xmc_usic.h ****   XMC_USIC_CH_INPUT_DX3, /**< DX3 input */
 219:D:/Users/Beheerder/Desktop/GPSBox/SensorMaritime-SensorBox/Sensorbox_firmware/GPSGyroAnalysisTool/GpsGyroAnalysisTool/GpsGyroAnalysisTool/Libraries/XMCLib/inc\xmc_usic.h ****   XMC_USIC_CH_INPUT_DX4, /**< DX4 input */
 220:D:/Users/Beheerder/Desktop/GPSBox/SensorMaritime-SensorBox/Sensorbox_firmware/GPSGyroAnalysisTool/GpsGyroAnalysisTool/GpsGyroAnalysisTool/Libraries/XMCLib/inc\xmc_usic.h ****   XMC_USIC_CH_INPUT_DX5  /**< DX5 input */
 221:D:/Users/Beheerder/Desktop/GPSBox/SensorMaritime-SensorBox/Sensorbox_firmware/GPSGyroAnalysisTool/GpsGyroAnalysisTool/GpsGyroAnalysisTool/Libraries/XMCLib/inc\xmc_usic.h **** } XMC_USIC_CH_INPUT_t;
 222:D:/Users/Beheerder/Desktop/GPSBox/SensorMaritime-SensorBox/Sensorbox_firmware/GPSGyroAnalysisTool/GpsGyroAnalysisTool/GpsGyroAnalysisTool/Libraries/XMCLib/inc\xmc_usic.h **** 
 223:D:/Users/Beheerder/Desktop/GPSBox/SensorMaritime-SensorBox/Sensorbox_firmware/GPSGyroAnalysisTool/GpsGyroAnalysisTool/GpsGyroAnalysisTool/Libraries/XMCLib/inc\xmc_usic.h **** /**
 224:D:/Users/Beheerder/Desktop/GPSBox/SensorMaritime-SensorBox/Sensorbox_firmware/GPSGyroAnalysisTool/GpsGyroAnalysisTool/GpsGyroAnalysisTool/Libraries/XMCLib/inc\xmc_usic.h ****  * USIC channel input source sampling frequency
 225:D:/Users/Beheerder/Desktop/GPSBox/SensorMaritime-SensorBox/Sensorbox_firmware/GPSGyroAnalysisTool/GpsGyroAnalysisTool/GpsGyroAnalysisTool/Libraries/XMCLib/inc\xmc_usic.h ****  */
 226:D:/Users/Beheerder/Desktop/GPSBox/SensorMaritime-SensorBox/Sensorbox_firmware/GPSGyroAnalysisTool/GpsGyroAnalysisTool/GpsGyroAnalysisTool/Libraries/XMCLib/inc\xmc_usic.h **** typedef enum XMC_USIC_CH_INPUT_SAMPLING_FREQ
 227:D:/Users/Beheerder/Desktop/GPSBox/SensorMaritime-SensorBox/Sensorbox_firmware/GPSGyroAnalysisTool/GpsGyroAnalysisTool/GpsGyroAnalysisTool/Libraries/XMCLib/inc\xmc_usic.h **** {
 228:D:/Users/Beheerder/Desktop/GPSBox/SensorMaritime-SensorBox/Sensorbox_firmware/GPSGyroAnalysisTool/GpsGyroAnalysisTool/GpsGyroAnalysisTool/Libraries/XMCLib/inc\xmc_usic.h ****   XMC_USIC_CH_INPUT_SAMPLING_FREQ_FPERIPH            = 0x0UL, /**< Use fperiph frequency for input 
 229:D:/Users/Beheerder/Desktop/GPSBox/SensorMaritime-SensorBox/Sensorbox_firmware/GPSGyroAnalysisTool/GpsGyroAnalysisTool/GpsGyroAnalysisTool/Libraries/XMCLib/inc\xmc_usic.h ****   XMC_USIC_CH_INPUT_SAMPLING_FREQ_FRACTIONAL_DIVIDER = 0x1UL << USIC_CH_DXCR_SFSEL_Pos  /**< Use fF
 230:D:/Users/Beheerder/Desktop/GPSBox/SensorMaritime-SensorBox/Sensorbox_firmware/GPSGyroAnalysisTool/GpsGyroAnalysisTool/GpsGyroAnalysisTool/Libraries/XMCLib/inc\xmc_usic.h **** } XMC_USIC_CH_INPUT_SAMPLING_FREQ_t;
 231:D:/Users/Beheerder/Desktop/GPSBox/SensorMaritime-SensorBox/Sensorbox_firmware/GPSGyroAnalysisTool/GpsGyroAnalysisTool/GpsGyroAnalysisTool/Libraries/XMCLib/inc\xmc_usic.h **** 
 232:D:/Users/Beheerder/Desktop/GPSBox/SensorMaritime-SensorBox/Sensorbox_firmware/GPSGyroAnalysisTool/GpsGyroAnalysisTool/GpsGyroAnalysisTool/Libraries/XMCLib/inc\xmc_usic.h **** /**
 233:D:/Users/Beheerder/Desktop/GPSBox/SensorMaritime-SensorBox/Sensorbox_firmware/GPSGyroAnalysisTool/GpsGyroAnalysisTool/GpsGyroAnalysisTool/Libraries/XMCLib/inc\xmc_usic.h ****  * USIC channel input combination mode
 234:D:/Users/Beheerder/Desktop/GPSBox/SensorMaritime-SensorBox/Sensorbox_firmware/GPSGyroAnalysisTool/GpsGyroAnalysisTool/GpsGyroAnalysisTool/Libraries/XMCLib/inc\xmc_usic.h ****  */
 235:D:/Users/Beheerder/Desktop/GPSBox/SensorMaritime-SensorBox/Sensorbox_firmware/GPSGyroAnalysisTool/GpsGyroAnalysisTool/GpsGyroAnalysisTool/Libraries/XMCLib/inc\xmc_usic.h **** typedef enum XMC_USIC_CH_INPUT_COMBINATION_MODE
 236:D:/Users/Beheerder/Desktop/GPSBox/SensorMaritime-SensorBox/Sensorbox_firmware/GPSGyroAnalysisTool/GpsGyroAnalysisTool/GpsGyroAnalysisTool/Libraries/XMCLib/inc\xmc_usic.h **** {
 237:D:/Users/Beheerder/Desktop/GPSBox/SensorMaritime-SensorBox/Sensorbox_firmware/GPSGyroAnalysisTool/GpsGyroAnalysisTool/GpsGyroAnalysisTool/Libraries/XMCLib/inc\xmc_usic.h ****   XMC_USIC_CH_INPUT_COMBINATION_MODE_TRIGGER_DISABLED = 0x0UL, /**< The trigger activation is disab
 238:D:/Users/Beheerder/Desktop/GPSBox/SensorMaritime-SensorBox/Sensorbox_firmware/GPSGyroAnalysisTool/GpsGyroAnalysisTool/GpsGyroAnalysisTool/Libraries/XMCLib/inc\xmc_usic.h ****   XMC_USIC_CH_INPUT_COMBINATION_MODE_RISING_EDGE      = 0x1UL, /**< A rising edge activates DXnT*/
 239:D:/Users/Beheerder/Desktop/GPSBox/SensorMaritime-SensorBox/Sensorbox_firmware/GPSGyroAnalysisTool/GpsGyroAnalysisTool/GpsGyroAnalysisTool/Libraries/XMCLib/inc\xmc_usic.h ****   XMC_USIC_CH_INPUT_COMBINATION_MODE_FALLING_EDGE     = 0x2UL, /**< A falling edge activates DXnT*/
 240:D:/Users/Beheerder/Desktop/GPSBox/SensorMaritime-SensorBox/Sensorbox_firmware/GPSGyroAnalysisTool/GpsGyroAnalysisTool/GpsGyroAnalysisTool/Libraries/XMCLib/inc\xmc_usic.h ****   XMC_USIC_CH_INPUT_COMBINATION_MODE_BOTH_EDGES       = 0x3UL, /**< Both edges activate DXnT*/
 241:D:/Users/Beheerder/Desktop/GPSBox/SensorMaritime-SensorBox/Sensorbox_firmware/GPSGyroAnalysisTool/GpsGyroAnalysisTool/GpsGyroAnalysisTool/Libraries/XMCLib/inc\xmc_usic.h **** } XMC_USIC_CH_INPUT_COMBINATION_MODE_t;
 242:D:/Users/Beheerder/Desktop/GPSBox/SensorMaritime-SensorBox/Sensorbox_firmware/GPSGyroAnalysisTool/GpsGyroAnalysisTool/GpsGyroAnalysisTool/Libraries/XMCLib/inc\xmc_usic.h **** 
 243:D:/Users/Beheerder/Desktop/GPSBox/SensorMaritime-SensorBox/Sensorbox_firmware/GPSGyroAnalysisTool/GpsGyroAnalysisTool/GpsGyroAnalysisTool/Libraries/XMCLib/inc\xmc_usic.h **** /**
 244:D:/Users/Beheerder/Desktop/GPSBox/SensorMaritime-SensorBox/Sensorbox_firmware/GPSGyroAnalysisTool/GpsGyroAnalysisTool/GpsGyroAnalysisTool/Libraries/XMCLib/inc\xmc_usic.h ****  * USIC channel data transmission start modes.
 245:D:/Users/Beheerder/Desktop/GPSBox/SensorMaritime-SensorBox/Sensorbox_firmware/GPSGyroAnalysisTool/GpsGyroAnalysisTool/GpsGyroAnalysisTool/Libraries/XMCLib/inc\xmc_usic.h ****  * Data shifted out of the transmit pin depends on the value configured for the
 246:D:/Users/Beheerder/Desktop/GPSBox/SensorMaritime-SensorBox/Sensorbox_firmware/GPSGyroAnalysisTool/GpsGyroAnalysisTool/GpsGyroAnalysisTool/Libraries/XMCLib/inc\xmc_usic.h ****  * TDEN bitfield of the TCSR register. Following enum values are used for configuring
 247:D:/Users/Beheerder/Desktop/GPSBox/SensorMaritime-SensorBox/Sensorbox_firmware/GPSGyroAnalysisTool/GpsGyroAnalysisTool/GpsGyroAnalysisTool/Libraries/XMCLib/inc\xmc_usic.h ****  * the TCSR->TDEN bitfield.
 248:D:/Users/Beheerder/Desktop/GPSBox/SensorMaritime-SensorBox/Sensorbox_firmware/GPSGyroAnalysisTool/GpsGyroAnalysisTool/GpsGyroAnalysisTool/Libraries/XMCLib/inc\xmc_usic.h ****  */
 249:D:/Users/Beheerder/Desktop/GPSBox/SensorMaritime-SensorBox/Sensorbox_firmware/GPSGyroAnalysisTool/GpsGyroAnalysisTool/GpsGyroAnalysisTool/Libraries/XMCLib/inc\xmc_usic.h **** typedef enum XMC_USIC_CH_START_TRANSMISION_MODE
 250:D:/Users/Beheerder/Desktop/GPSBox/SensorMaritime-SensorBox/Sensorbox_firmware/GPSGyroAnalysisTool/GpsGyroAnalysisTool/GpsGyroAnalysisTool/Libraries/XMCLib/inc\xmc_usic.h **** {
 251:D:/Users/Beheerder/Desktop/GPSBox/SensorMaritime-SensorBox/Sensorbox_firmware/GPSGyroAnalysisTool/GpsGyroAnalysisTool/GpsGyroAnalysisTool/Libraries/XMCLib/inc\xmc_usic.h ****   XMC_USIC_CH_START_TRANSMISION_DISABLED      = 0x0U, /**< Passive data level is sent out on transm
 252:D:/Users/Beheerder/Desktop/GPSBox/SensorMaritime-SensorBox/Sensorbox_firmware/GPSGyroAnalysisTool/GpsGyroAnalysisTool/GpsGyroAnalysisTool/Libraries/XMCLib/inc\xmc_usic.h ****   XMC_USIC_CH_START_TRANSMISION_ON_TDV        = 0x1UL << USIC_CH_TCSR_TDEN_Pos, /**< Transmission o
 253:D:/Users/Beheerder/Desktop/GPSBox/SensorMaritime-SensorBox/Sensorbox_firmware/GPSGyroAnalysisTool/GpsGyroAnalysisTool/GpsGyroAnalysisTool/Libraries/XMCLib/inc\xmc_usic.h ****   XMC_USIC_CH_START_TRANSMISION_ON_TDV_DX2S_0 = 0x2UL << USIC_CH_TCSR_TDEN_Pos, /**< Transmission o
 254:D:/Users/Beheerder/Desktop/GPSBox/SensorMaritime-SensorBox/Sensorbox_firmware/GPSGyroAnalysisTool/GpsGyroAnalysisTool/GpsGyroAnalysisTool/Libraries/XMCLib/inc\xmc_usic.h ****   XMC_USIC_CH_START_TRANSMISION_ON_TDV_DX2S_1 = 0x3UL << USIC_CH_TCSR_TDEN_Pos  /**< Transmission o
 255:D:/Users/Beheerder/Desktop/GPSBox/SensorMaritime-SensorBox/Sensorbox_firmware/GPSGyroAnalysisTool/GpsGyroAnalysisTool/GpsGyroAnalysisTool/Libraries/XMCLib/inc\xmc_usic.h **** } XMC_USIC_CH_START_TRANSMISION_MODE_t;
 256:D:/Users/Beheerder/Desktop/GPSBox/SensorMaritime-SensorBox/Sensorbox_firmware/GPSGyroAnalysisTool/GpsGyroAnalysisTool/GpsGyroAnalysisTool/Libraries/XMCLib/inc\xmc_usic.h **** 
 257:D:/Users/Beheerder/Desktop/GPSBox/SensorMaritime-SensorBox/Sensorbox_firmware/GPSGyroAnalysisTool/GpsGyroAnalysisTool/GpsGyroAnalysisTool/Libraries/XMCLib/inc\xmc_usic.h **** /**
 258:D:/Users/Beheerder/Desktop/GPSBox/SensorMaritime-SensorBox/Sensorbox_firmware/GPSGyroAnalysisTool/GpsGyroAnalysisTool/GpsGyroAnalysisTool/Libraries/XMCLib/inc\xmc_usic.h ****  * USIC channel interrupt node pointers
 259:D:/Users/Beheerder/Desktop/GPSBox/SensorMaritime-SensorBox/Sensorbox_firmware/GPSGyroAnalysisTool/GpsGyroAnalysisTool/GpsGyroAnalysisTool/Libraries/XMCLib/inc\xmc_usic.h ****  */
 260:D:/Users/Beheerder/Desktop/GPSBox/SensorMaritime-SensorBox/Sensorbox_firmware/GPSGyroAnalysisTool/GpsGyroAnalysisTool/GpsGyroAnalysisTool/Libraries/XMCLib/inc\xmc_usic.h **** typedef enum XMC_USIC_CH_INTERRUPT_NODE_POINTER
 261:D:/Users/Beheerder/Desktop/GPSBox/SensorMaritime-SensorBox/Sensorbox_firmware/GPSGyroAnalysisTool/GpsGyroAnalysisTool/GpsGyroAnalysisTool/Libraries/XMCLib/inc\xmc_usic.h **** {
 262:D:/Users/Beheerder/Desktop/GPSBox/SensorMaritime-SensorBox/Sensorbox_firmware/GPSGyroAnalysisTool/GpsGyroAnalysisTool/GpsGyroAnalysisTool/Libraries/XMCLib/inc\xmc_usic.h ****   XMC_USIC_CH_INTERRUPT_NODE_POINTER_TRANSMIT_SHIFT      = USIC_CH_INPR_TSINP_Pos, /**< Node pointe
 263:D:/Users/Beheerder/Desktop/GPSBox/SensorMaritime-SensorBox/Sensorbox_firmware/GPSGyroAnalysisTool/GpsGyroAnalysisTool/GpsGyroAnalysisTool/Libraries/XMCLib/inc\xmc_usic.h ****   XMC_USIC_CH_INTERRUPT_NODE_POINTER_TRANSMIT_BUFFER     = USIC_CH_INPR_TBINP_Pos, /**< Node pointe
 264:D:/Users/Beheerder/Desktop/GPSBox/SensorMaritime-SensorBox/Sensorbox_firmware/GPSGyroAnalysisTool/GpsGyroAnalysisTool/GpsGyroAnalysisTool/Libraries/XMCLib/inc\xmc_usic.h ****   XMC_USIC_CH_INTERRUPT_NODE_POINTER_RECEIVE             = USIC_CH_INPR_RINP_Pos,  /**< Node pointe
 265:D:/Users/Beheerder/Desktop/GPSBox/SensorMaritime-SensorBox/Sensorbox_firmware/GPSGyroAnalysisTool/GpsGyroAnalysisTool/GpsGyroAnalysisTool/Libraries/XMCLib/inc\xmc_usic.h ****   XMC_USIC_CH_INTERRUPT_NODE_POINTER_ALTERNATE_RECEIVE   = USIC_CH_INPR_AINP_Pos,  /**< Node pointe
 266:D:/Users/Beheerder/Desktop/GPSBox/SensorMaritime-SensorBox/Sensorbox_firmware/GPSGyroAnalysisTool/GpsGyroAnalysisTool/GpsGyroAnalysisTool/Libraries/XMCLib/inc\xmc_usic.h ****   XMC_USIC_CH_INTERRUPT_NODE_POINTER_PROTOCOL            = USIC_CH_INPR_PINP_Pos   /**< Node pointe
 267:D:/Users/Beheerder/Desktop/GPSBox/SensorMaritime-SensorBox/Sensorbox_firmware/GPSGyroAnalysisTool/GpsGyroAnalysisTool/GpsGyroAnalysisTool/Libraries/XMCLib/inc\xmc_usic.h **** } XMC_USIC_CH_INTERRUPT_NODE_POINTER_t;
 268:D:/Users/Beheerder/Desktop/GPSBox/SensorMaritime-SensorBox/Sensorbox_firmware/GPSGyroAnalysisTool/GpsGyroAnalysisTool/GpsGyroAnalysisTool/Libraries/XMCLib/inc\xmc_usic.h **** 
 269:D:/Users/Beheerder/Desktop/GPSBox/SensorMaritime-SensorBox/Sensorbox_firmware/GPSGyroAnalysisTool/GpsGyroAnalysisTool/GpsGyroAnalysisTool/Libraries/XMCLib/inc\xmc_usic.h **** /**
 270:D:/Users/Beheerder/Desktop/GPSBox/SensorMaritime-SensorBox/Sensorbox_firmware/GPSGyroAnalysisTool/GpsGyroAnalysisTool/GpsGyroAnalysisTool/Libraries/XMCLib/inc\xmc_usic.h ****  * USIC channel events
 271:D:/Users/Beheerder/Desktop/GPSBox/SensorMaritime-SensorBox/Sensorbox_firmware/GPSGyroAnalysisTool/GpsGyroAnalysisTool/GpsGyroAnalysisTool/Libraries/XMCLib/inc\xmc_usic.h ****  */
 272:D:/Users/Beheerder/Desktop/GPSBox/SensorMaritime-SensorBox/Sensorbox_firmware/GPSGyroAnalysisTool/GpsGyroAnalysisTool/GpsGyroAnalysisTool/Libraries/XMCLib/inc\xmc_usic.h **** typedef enum XMC_USIC_CH_EVENT
 273:D:/Users/Beheerder/Desktop/GPSBox/SensorMaritime-SensorBox/Sensorbox_firmware/GPSGyroAnalysisTool/GpsGyroAnalysisTool/GpsGyroAnalysisTool/Libraries/XMCLib/inc\xmc_usic.h **** {
 274:D:/Users/Beheerder/Desktop/GPSBox/SensorMaritime-SensorBox/Sensorbox_firmware/GPSGyroAnalysisTool/GpsGyroAnalysisTool/GpsGyroAnalysisTool/Libraries/XMCLib/inc\xmc_usic.h ****   XMC_USIC_CH_EVENT_RECEIVE_START       = USIC_CH_CCR_RSIEN_Msk, /**< Receive start event */
 275:D:/Users/Beheerder/Desktop/GPSBox/SensorMaritime-SensorBox/Sensorbox_firmware/GPSGyroAnalysisTool/GpsGyroAnalysisTool/GpsGyroAnalysisTool/Libraries/XMCLib/inc\xmc_usic.h ****   XMC_USIC_CH_EVENT_DATA_LOST           = USIC_CH_CCR_DLIEN_Msk, /**< Data lost event */
 276:D:/Users/Beheerder/Desktop/GPSBox/SensorMaritime-SensorBox/Sensorbox_firmware/GPSGyroAnalysisTool/GpsGyroAnalysisTool/GpsGyroAnalysisTool/Libraries/XMCLib/inc\xmc_usic.h ****   XMC_USIC_CH_EVENT_TRANSMIT_SHIFT      = USIC_CH_CCR_TSIEN_Msk, /**< Transmit shift event */
 277:D:/Users/Beheerder/Desktop/GPSBox/SensorMaritime-SensorBox/Sensorbox_firmware/GPSGyroAnalysisTool/GpsGyroAnalysisTool/GpsGyroAnalysisTool/Libraries/XMCLib/inc\xmc_usic.h ****   XMC_USIC_CH_EVENT_TRANSMIT_BUFFER     = USIC_CH_CCR_TBIEN_Msk, /**< Transmit buffer event */
 278:D:/Users/Beheerder/Desktop/GPSBox/SensorMaritime-SensorBox/Sensorbox_firmware/GPSGyroAnalysisTool/GpsGyroAnalysisTool/GpsGyroAnalysisTool/Libraries/XMCLib/inc\xmc_usic.h ****   XMC_USIC_CH_EVENT_STANDARD_RECEIVE    = USIC_CH_CCR_RIEN_Msk,  /**< Receive event */
 279:D:/Users/Beheerder/Desktop/GPSBox/SensorMaritime-SensorBox/Sensorbox_firmware/GPSGyroAnalysisTool/GpsGyroAnalysisTool/GpsGyroAnalysisTool/Libraries/XMCLib/inc\xmc_usic.h ****   XMC_USIC_CH_EVENT_ALTERNATIVE_RECEIVE = USIC_CH_CCR_AIEN_Msk,  /**< Alternate receive event */
 280:D:/Users/Beheerder/Desktop/GPSBox/SensorMaritime-SensorBox/Sensorbox_firmware/GPSGyroAnalysisTool/GpsGyroAnalysisTool/GpsGyroAnalysisTool/Libraries/XMCLib/inc\xmc_usic.h ****   XMC_USIC_CH_EVENT_BAUD_RATE_GENERATOR = USIC_CH_CCR_BRGIEN_Msk /**< Baudrate generator event */
 281:D:/Users/Beheerder/Desktop/GPSBox/SensorMaritime-SensorBox/Sensorbox_firmware/GPSGyroAnalysisTool/GpsGyroAnalysisTool/GpsGyroAnalysisTool/Libraries/XMCLib/inc\xmc_usic.h **** } XMC_USIC_CH_EVENT_t;
 282:D:/Users/Beheerder/Desktop/GPSBox/SensorMaritime-SensorBox/Sensorbox_firmware/GPSGyroAnalysisTool/GpsGyroAnalysisTool/GpsGyroAnalysisTool/Libraries/XMCLib/inc\xmc_usic.h **** 
 283:D:/Users/Beheerder/Desktop/GPSBox/SensorMaritime-SensorBox/Sensorbox_firmware/GPSGyroAnalysisTool/GpsGyroAnalysisTool/GpsGyroAnalysisTool/Libraries/XMCLib/inc\xmc_usic.h **** /**
 284:D:/Users/Beheerder/Desktop/GPSBox/SensorMaritime-SensorBox/Sensorbox_firmware/GPSGyroAnalysisTool/GpsGyroAnalysisTool/GpsGyroAnalysisTool/Libraries/XMCLib/inc\xmc_usic.h **** * USIC channel parity mode
 285:D:/Users/Beheerder/Desktop/GPSBox/SensorMaritime-SensorBox/Sensorbox_firmware/GPSGyroAnalysisTool/GpsGyroAnalysisTool/GpsGyroAnalysisTool/Libraries/XMCLib/inc\xmc_usic.h **** */
 286:D:/Users/Beheerder/Desktop/GPSBox/SensorMaritime-SensorBox/Sensorbox_firmware/GPSGyroAnalysisTool/GpsGyroAnalysisTool/GpsGyroAnalysisTool/Libraries/XMCLib/inc\xmc_usic.h **** typedef enum XMC_USIC_CH_PARITY_MODE
 287:D:/Users/Beheerder/Desktop/GPSBox/SensorMaritime-SensorBox/Sensorbox_firmware/GPSGyroAnalysisTool/GpsGyroAnalysisTool/GpsGyroAnalysisTool/Libraries/XMCLib/inc\xmc_usic.h **** {
 288:D:/Users/Beheerder/Desktop/GPSBox/SensorMaritime-SensorBox/Sensorbox_firmware/GPSGyroAnalysisTool/GpsGyroAnalysisTool/GpsGyroAnalysisTool/Libraries/XMCLib/inc\xmc_usic.h ****   XMC_USIC_CH_PARITY_MODE_NONE     = 0x0UL,  /**< Disable parity mode */
 289:D:/Users/Beheerder/Desktop/GPSBox/SensorMaritime-SensorBox/Sensorbox_firmware/GPSGyroAnalysisTool/GpsGyroAnalysisTool/GpsGyroAnalysisTool/Libraries/XMCLib/inc\xmc_usic.h ****   XMC_USIC_CH_PARITY_MODE_EVEN     = 0x2UL << USIC_CH_CCR_PM_Pos,  /**< Enable even parity mode */
 290:D:/Users/Beheerder/Desktop/GPSBox/SensorMaritime-SensorBox/Sensorbox_firmware/GPSGyroAnalysisTool/GpsGyroAnalysisTool/GpsGyroAnalysisTool/Libraries/XMCLib/inc\xmc_usic.h ****   XMC_USIC_CH_PARITY_MODE_ODD      = 0x3UL << USIC_CH_CCR_PM_Pos   /**< Enable odd parity mode */
 291:D:/Users/Beheerder/Desktop/GPSBox/SensorMaritime-SensorBox/Sensorbox_firmware/GPSGyroAnalysisTool/GpsGyroAnalysisTool/GpsGyroAnalysisTool/Libraries/XMCLib/inc\xmc_usic.h **** } XMC_USIC_CH_PARITY_MODE_t;
 292:D:/Users/Beheerder/Desktop/GPSBox/SensorMaritime-SensorBox/Sensorbox_firmware/GPSGyroAnalysisTool/GpsGyroAnalysisTool/GpsGyroAnalysisTool/Libraries/XMCLib/inc\xmc_usic.h **** 
 293:D:/Users/Beheerder/Desktop/GPSBox/SensorMaritime-SensorBox/Sensorbox_firmware/GPSGyroAnalysisTool/GpsGyroAnalysisTool/GpsGyroAnalysisTool/Libraries/XMCLib/inc\xmc_usic.h **** /**
 294:D:/Users/Beheerder/Desktop/GPSBox/SensorMaritime-SensorBox/Sensorbox_firmware/GPSGyroAnalysisTool/GpsGyroAnalysisTool/GpsGyroAnalysisTool/Libraries/XMCLib/inc\xmc_usic.h **** * USIC channel data output mode
 295:D:/Users/Beheerder/Desktop/GPSBox/SensorMaritime-SensorBox/Sensorbox_firmware/GPSGyroAnalysisTool/GpsGyroAnalysisTool/GpsGyroAnalysisTool/Libraries/XMCLib/inc\xmc_usic.h **** */
 296:D:/Users/Beheerder/Desktop/GPSBox/SensorMaritime-SensorBox/Sensorbox_firmware/GPSGyroAnalysisTool/GpsGyroAnalysisTool/GpsGyroAnalysisTool/Libraries/XMCLib/inc\xmc_usic.h **** typedef enum XMC_USIC_CH_DATA_OUTPUT_MODE
 297:D:/Users/Beheerder/Desktop/GPSBox/SensorMaritime-SensorBox/Sensorbox_firmware/GPSGyroAnalysisTool/GpsGyroAnalysisTool/GpsGyroAnalysisTool/Libraries/XMCLib/inc\xmc_usic.h **** {
 298:D:/Users/Beheerder/Desktop/GPSBox/SensorMaritime-SensorBox/Sensorbox_firmware/GPSGyroAnalysisTool/GpsGyroAnalysisTool/GpsGyroAnalysisTool/Libraries/XMCLib/inc\xmc_usic.h ****   XMC_USIC_CH_DATA_OUTPUT_MODE_NORMAL   = 0x0UL,  /**< Data output normal mode */
 299:D:/Users/Beheerder/Desktop/GPSBox/SensorMaritime-SensorBox/Sensorbox_firmware/GPSGyroAnalysisTool/GpsGyroAnalysisTool/GpsGyroAnalysisTool/Libraries/XMCLib/inc\xmc_usic.h ****   XMC_USIC_CH_DATA_OUTPUT_MODE_INVERTED = 0x1UL << USIC_CH_SCTR_DOCFG_Pos   /**< Data output invert
 300:D:/Users/Beheerder/Desktop/GPSBox/SensorMaritime-SensorBox/Sensorbox_firmware/GPSGyroAnalysisTool/GpsGyroAnalysisTool/GpsGyroAnalysisTool/Libraries/XMCLib/inc\xmc_usic.h **** } XMC_USIC_CH_DATA_OUTPUT_MODE_t;
 301:D:/Users/Beheerder/Desktop/GPSBox/SensorMaritime-SensorBox/Sensorbox_firmware/GPSGyroAnalysisTool/GpsGyroAnalysisTool/GpsGyroAnalysisTool/Libraries/XMCLib/inc\xmc_usic.h **** 
 302:D:/Users/Beheerder/Desktop/GPSBox/SensorMaritime-SensorBox/Sensorbox_firmware/GPSGyroAnalysisTool/GpsGyroAnalysisTool/GpsGyroAnalysisTool/Libraries/XMCLib/inc\xmc_usic.h **** /**
 303:D:/Users/Beheerder/Desktop/GPSBox/SensorMaritime-SensorBox/Sensorbox_firmware/GPSGyroAnalysisTool/GpsGyroAnalysisTool/GpsGyroAnalysisTool/Libraries/XMCLib/inc\xmc_usic.h **** * USIC channel data transmit buffer status
 304:D:/Users/Beheerder/Desktop/GPSBox/SensorMaritime-SensorBox/Sensorbox_firmware/GPSGyroAnalysisTool/GpsGyroAnalysisTool/GpsGyroAnalysisTool/Libraries/XMCLib/inc\xmc_usic.h **** */
 305:D:/Users/Beheerder/Desktop/GPSBox/SensorMaritime-SensorBox/Sensorbox_firmware/GPSGyroAnalysisTool/GpsGyroAnalysisTool/GpsGyroAnalysisTool/Libraries/XMCLib/inc\xmc_usic.h **** typedef enum XMC_USIC_CH_TBUF_STATUS
 306:D:/Users/Beheerder/Desktop/GPSBox/SensorMaritime-SensorBox/Sensorbox_firmware/GPSGyroAnalysisTool/GpsGyroAnalysisTool/GpsGyroAnalysisTool/Libraries/XMCLib/inc\xmc_usic.h **** {
 307:D:/Users/Beheerder/Desktop/GPSBox/SensorMaritime-SensorBox/Sensorbox_firmware/GPSGyroAnalysisTool/GpsGyroAnalysisTool/GpsGyroAnalysisTool/Libraries/XMCLib/inc\xmc_usic.h ****   XMC_USIC_CH_TBUF_STATUS_IDLE = 0x0UL,                 /**< Transfer buffer is currently idle*/
 308:D:/Users/Beheerder/Desktop/GPSBox/SensorMaritime-SensorBox/Sensorbox_firmware/GPSGyroAnalysisTool/GpsGyroAnalysisTool/GpsGyroAnalysisTool/Libraries/XMCLib/inc\xmc_usic.h ****   XMC_USIC_CH_TBUF_STATUS_BUSY = USIC_CH_TCSR_TDV_Msk   /**< Transfer buffer is currently busy*/
 309:D:/Users/Beheerder/Desktop/GPSBox/SensorMaritime-SensorBox/Sensorbox_firmware/GPSGyroAnalysisTool/GpsGyroAnalysisTool/GpsGyroAnalysisTool/Libraries/XMCLib/inc\xmc_usic.h **** } XMC_USIC_CH_TBUF_STATUS_t;
 310:D:/Users/Beheerder/Desktop/GPSBox/SensorMaritime-SensorBox/Sensorbox_firmware/GPSGyroAnalysisTool/GpsGyroAnalysisTool/GpsGyroAnalysisTool/Libraries/XMCLib/inc\xmc_usic.h **** 
 311:D:/Users/Beheerder/Desktop/GPSBox/SensorMaritime-SensorBox/Sensorbox_firmware/GPSGyroAnalysisTool/GpsGyroAnalysisTool/GpsGyroAnalysisTool/Libraries/XMCLib/inc\xmc_usic.h **** 
 312:D:/Users/Beheerder/Desktop/GPSBox/SensorMaritime-SensorBox/Sensorbox_firmware/GPSGyroAnalysisTool/GpsGyroAnalysisTool/GpsGyroAnalysisTool/Libraries/XMCLib/inc\xmc_usic.h **** 
 313:D:/Users/Beheerder/Desktop/GPSBox/SensorMaritime-SensorBox/Sensorbox_firmware/GPSGyroAnalysisTool/GpsGyroAnalysisTool/GpsGyroAnalysisTool/Libraries/XMCLib/inc\xmc_usic.h **** /**
 314:D:/Users/Beheerder/Desktop/GPSBox/SensorMaritime-SensorBox/Sensorbox_firmware/GPSGyroAnalysisTool/GpsGyroAnalysisTool/GpsGyroAnalysisTool/Libraries/XMCLib/inc\xmc_usic.h **** * USIC channel data transmit buffer status modification
 315:D:/Users/Beheerder/Desktop/GPSBox/SensorMaritime-SensorBox/Sensorbox_firmware/GPSGyroAnalysisTool/GpsGyroAnalysisTool/GpsGyroAnalysisTool/Libraries/XMCLib/inc\xmc_usic.h **** */
 316:D:/Users/Beheerder/Desktop/GPSBox/SensorMaritime-SensorBox/Sensorbox_firmware/GPSGyroAnalysisTool/GpsGyroAnalysisTool/GpsGyroAnalysisTool/Libraries/XMCLib/inc\xmc_usic.h **** typedef enum XMC_USIC_CH_TBUF_STATUS_SET
 317:D:/Users/Beheerder/Desktop/GPSBox/SensorMaritime-SensorBox/Sensorbox_firmware/GPSGyroAnalysisTool/GpsGyroAnalysisTool/GpsGyroAnalysisTool/Libraries/XMCLib/inc\xmc_usic.h **** {
 318:D:/Users/Beheerder/Desktop/GPSBox/SensorMaritime-SensorBox/Sensorbox_firmware/GPSGyroAnalysisTool/GpsGyroAnalysisTool/GpsGyroAnalysisTool/Libraries/XMCLib/inc\xmc_usic.h ****   XMC_USIC_CH_TBUF_STATUS_SET_BUSY   = 0x1UL, /**< Set Transfer buffer status to busy*/
 319:D:/Users/Beheerder/Desktop/GPSBox/SensorMaritime-SensorBox/Sensorbox_firmware/GPSGyroAnalysisTool/GpsGyroAnalysisTool/GpsGyroAnalysisTool/Libraries/XMCLib/inc\xmc_usic.h ****   XMC_USIC_CH_TBUF_STATUS_SET_IDLE   = 0x2UL  /**< Set Transfer buffer status to idle*/
 320:D:/Users/Beheerder/Desktop/GPSBox/SensorMaritime-SensorBox/Sensorbox_firmware/GPSGyroAnalysisTool/GpsGyroAnalysisTool/GpsGyroAnalysisTool/Libraries/XMCLib/inc\xmc_usic.h **** } XMC_USIC_CH_TBUF_STATUS_SET_t;
 321:D:/Users/Beheerder/Desktop/GPSBox/SensorMaritime-SensorBox/Sensorbox_firmware/GPSGyroAnalysisTool/GpsGyroAnalysisTool/GpsGyroAnalysisTool/Libraries/XMCLib/inc\xmc_usic.h **** 
 322:D:/Users/Beheerder/Desktop/GPSBox/SensorMaritime-SensorBox/Sensorbox_firmware/GPSGyroAnalysisTool/GpsGyroAnalysisTool/GpsGyroAnalysisTool/Libraries/XMCLib/inc\xmc_usic.h **** /**
 323:D:/Users/Beheerder/Desktop/GPSBox/SensorMaritime-SensorBox/Sensorbox_firmware/GPSGyroAnalysisTool/GpsGyroAnalysisTool/GpsGyroAnalysisTool/Libraries/XMCLib/inc\xmc_usic.h **** * USIC channel receive buffer status
 324:D:/Users/Beheerder/Desktop/GPSBox/SensorMaritime-SensorBox/Sensorbox_firmware/GPSGyroAnalysisTool/GpsGyroAnalysisTool/GpsGyroAnalysisTool/Libraries/XMCLib/inc\xmc_usic.h **** */
 325:D:/Users/Beheerder/Desktop/GPSBox/SensorMaritime-SensorBox/Sensorbox_firmware/GPSGyroAnalysisTool/GpsGyroAnalysisTool/GpsGyroAnalysisTool/Libraries/XMCLib/inc\xmc_usic.h **** typedef enum XMC_USIC_CH_RBUF_STATUS
 326:D:/Users/Beheerder/Desktop/GPSBox/SensorMaritime-SensorBox/Sensorbox_firmware/GPSGyroAnalysisTool/GpsGyroAnalysisTool/GpsGyroAnalysisTool/Libraries/XMCLib/inc\xmc_usic.h **** {
 327:D:/Users/Beheerder/Desktop/GPSBox/SensorMaritime-SensorBox/Sensorbox_firmware/GPSGyroAnalysisTool/GpsGyroAnalysisTool/GpsGyroAnalysisTool/Libraries/XMCLib/inc\xmc_usic.h ****   XMC_USIC_CH_RBUF_STATUS_DATA_VALID0 = USIC_CH_RBUFSR_RDV0_Msk, /**< RBUF0 data has not yet been r
 328:D:/Users/Beheerder/Desktop/GPSBox/SensorMaritime-SensorBox/Sensorbox_firmware/GPSGyroAnalysisTool/GpsGyroAnalysisTool/GpsGyroAnalysisTool/Libraries/XMCLib/inc\xmc_usic.h ****   XMC_USIC_CH_RBUF_STATUS_DATA_VALID1 = USIC_CH_RBUFSR_RDV1_Msk  /**< RBUF1 data has not yet been r
 329:D:/Users/Beheerder/Desktop/GPSBox/SensorMaritime-SensorBox/Sensorbox_firmware/GPSGyroAnalysisTool/GpsGyroAnalysisTool/GpsGyroAnalysisTool/Libraries/XMCLib/inc\xmc_usic.h **** } XMC_USIC_CH_RBUF_STATUS_t;
 330:D:/Users/Beheerder/Desktop/GPSBox/SensorMaritime-SensorBox/Sensorbox_firmware/GPSGyroAnalysisTool/GpsGyroAnalysisTool/GpsGyroAnalysisTool/Libraries/XMCLib/inc\xmc_usic.h **** 
 331:D:/Users/Beheerder/Desktop/GPSBox/SensorMaritime-SensorBox/Sensorbox_firmware/GPSGyroAnalysisTool/GpsGyroAnalysisTool/GpsGyroAnalysisTool/Libraries/XMCLib/inc\xmc_usic.h **** /**
 332:D:/Users/Beheerder/Desktop/GPSBox/SensorMaritime-SensorBox/Sensorbox_firmware/GPSGyroAnalysisTool/GpsGyroAnalysisTool/GpsGyroAnalysisTool/Libraries/XMCLib/inc\xmc_usic.h ****  * USIC channel output signal passive data level
 333:D:/Users/Beheerder/Desktop/GPSBox/SensorMaritime-SensorBox/Sensorbox_firmware/GPSGyroAnalysisTool/GpsGyroAnalysisTool/GpsGyroAnalysisTool/Libraries/XMCLib/inc\xmc_usic.h **** */
 334:D:/Users/Beheerder/Desktop/GPSBox/SensorMaritime-SensorBox/Sensorbox_firmware/GPSGyroAnalysisTool/GpsGyroAnalysisTool/GpsGyroAnalysisTool/Libraries/XMCLib/inc\xmc_usic.h **** typedef enum XMC_USCI_CH_PASSIVE_DATA_LEVEL
 335:D:/Users/Beheerder/Desktop/GPSBox/SensorMaritime-SensorBox/Sensorbox_firmware/GPSGyroAnalysisTool/GpsGyroAnalysisTool/GpsGyroAnalysisTool/Libraries/XMCLib/inc\xmc_usic.h **** {
 336:D:/Users/Beheerder/Desktop/GPSBox/SensorMaritime-SensorBox/Sensorbox_firmware/GPSGyroAnalysisTool/GpsGyroAnalysisTool/GpsGyroAnalysisTool/Libraries/XMCLib/inc\xmc_usic.h ****   XMC_USIC_CH_PASSIVE_DATA_LEVEL0 = 0x0UL, /**< Passive level(idle mode signal level) 0 */
 337:D:/Users/Beheerder/Desktop/GPSBox/SensorMaritime-SensorBox/Sensorbox_firmware/GPSGyroAnalysisTool/GpsGyroAnalysisTool/GpsGyroAnalysisTool/Libraries/XMCLib/inc\xmc_usic.h ****   XMC_USIC_CH_PASSIVE_DATA_LEVEL1 = 0x1UL << USIC_CH_SCTR_PDL_Pos  /**< Passive level(idle mode sig
 338:D:/Users/Beheerder/Desktop/GPSBox/SensorMaritime-SensorBox/Sensorbox_firmware/GPSGyroAnalysisTool/GpsGyroAnalysisTool/GpsGyroAnalysisTool/Libraries/XMCLib/inc\xmc_usic.h **** } XMC_USIC_CH_PASSIVE_DATA_LEVEL_t;
 339:D:/Users/Beheerder/Desktop/GPSBox/SensorMaritime-SensorBox/Sensorbox_firmware/GPSGyroAnalysisTool/GpsGyroAnalysisTool/GpsGyroAnalysisTool/Libraries/XMCLib/inc\xmc_usic.h **** 
 340:D:/Users/Beheerder/Desktop/GPSBox/SensorMaritime-SensorBox/Sensorbox_firmware/GPSGyroAnalysisTool/GpsGyroAnalysisTool/GpsGyroAnalysisTool/Libraries/XMCLib/inc\xmc_usic.h **** /**
 341:D:/Users/Beheerder/Desktop/GPSBox/SensorMaritime-SensorBox/Sensorbox_firmware/GPSGyroAnalysisTool/GpsGyroAnalysisTool/GpsGyroAnalysisTool/Libraries/XMCLib/inc\xmc_usic.h **** * USIC channel receive FIFO size
 342:D:/Users/Beheerder/Desktop/GPSBox/SensorMaritime-SensorBox/Sensorbox_firmware/GPSGyroAnalysisTool/GpsGyroAnalysisTool/GpsGyroAnalysisTool/Libraries/XMCLib/inc\xmc_usic.h **** */
 343:D:/Users/Beheerder/Desktop/GPSBox/SensorMaritime-SensorBox/Sensorbox_firmware/GPSGyroAnalysisTool/GpsGyroAnalysisTool/GpsGyroAnalysisTool/Libraries/XMCLib/inc\xmc_usic.h **** typedef enum XMC_USIC_CH_FIFO_SIZE
 344:D:/Users/Beheerder/Desktop/GPSBox/SensorMaritime-SensorBox/Sensorbox_firmware/GPSGyroAnalysisTool/GpsGyroAnalysisTool/GpsGyroAnalysisTool/Libraries/XMCLib/inc\xmc_usic.h **** {
 345:D:/Users/Beheerder/Desktop/GPSBox/SensorMaritime-SensorBox/Sensorbox_firmware/GPSGyroAnalysisTool/GpsGyroAnalysisTool/GpsGyroAnalysisTool/Libraries/XMCLib/inc\xmc_usic.h ****   XMC_USIC_CH_FIFO_DISABLED     = 0x0U,  /**< FIFO Disabled */
 346:D:/Users/Beheerder/Desktop/GPSBox/SensorMaritime-SensorBox/Sensorbox_firmware/GPSGyroAnalysisTool/GpsGyroAnalysisTool/GpsGyroAnalysisTool/Libraries/XMCLib/inc\xmc_usic.h ****   XMC_USIC_CH_FIFO_SIZE_2WORDS  = 0x1U,  /**< FIFO size: 2 words */
 347:D:/Users/Beheerder/Desktop/GPSBox/SensorMaritime-SensorBox/Sensorbox_firmware/GPSGyroAnalysisTool/GpsGyroAnalysisTool/GpsGyroAnalysisTool/Libraries/XMCLib/inc\xmc_usic.h ****   XMC_USIC_CH_FIFO_SIZE_4WORDS  = 0x2U,  /**< FIFO size: 4 words */
 348:D:/Users/Beheerder/Desktop/GPSBox/SensorMaritime-SensorBox/Sensorbox_firmware/GPSGyroAnalysisTool/GpsGyroAnalysisTool/GpsGyroAnalysisTool/Libraries/XMCLib/inc\xmc_usic.h ****   XMC_USIC_CH_FIFO_SIZE_8WORDS  = 0x3U,  /**< FIFO size: 8 words */
 349:D:/Users/Beheerder/Desktop/GPSBox/SensorMaritime-SensorBox/Sensorbox_firmware/GPSGyroAnalysisTool/GpsGyroAnalysisTool/GpsGyroAnalysisTool/Libraries/XMCLib/inc\xmc_usic.h ****   XMC_USIC_CH_FIFO_SIZE_16WORDS = 0x4U,  /**< FIFO size: 16 words */
 350:D:/Users/Beheerder/Desktop/GPSBox/SensorMaritime-SensorBox/Sensorbox_firmware/GPSGyroAnalysisTool/GpsGyroAnalysisTool/GpsGyroAnalysisTool/Libraries/XMCLib/inc\xmc_usic.h ****   XMC_USIC_CH_FIFO_SIZE_32WORDS = 0x5U,  /**< FIFO size: 32 words */
 351:D:/Users/Beheerder/Desktop/GPSBox/SensorMaritime-SensorBox/Sensorbox_firmware/GPSGyroAnalysisTool/GpsGyroAnalysisTool/GpsGyroAnalysisTool/Libraries/XMCLib/inc\xmc_usic.h ****   XMC_USIC_CH_FIFO_SIZE_64WORDS = 0x6U   /**< FIFO size: 64 words */
 352:D:/Users/Beheerder/Desktop/GPSBox/SensorMaritime-SensorBox/Sensorbox_firmware/GPSGyroAnalysisTool/GpsGyroAnalysisTool/GpsGyroAnalysisTool/Libraries/XMCLib/inc\xmc_usic.h **** } XMC_USIC_CH_FIFO_SIZE_t;
 353:D:/Users/Beheerder/Desktop/GPSBox/SensorMaritime-SensorBox/Sensorbox_firmware/GPSGyroAnalysisTool/GpsGyroAnalysisTool/GpsGyroAnalysisTool/Libraries/XMCLib/inc\xmc_usic.h **** 
 354:D:/Users/Beheerder/Desktop/GPSBox/SensorMaritime-SensorBox/Sensorbox_firmware/GPSGyroAnalysisTool/GpsGyroAnalysisTool/GpsGyroAnalysisTool/Libraries/XMCLib/inc\xmc_usic.h **** /**
 355:D:/Users/Beheerder/Desktop/GPSBox/SensorMaritime-SensorBox/Sensorbox_firmware/GPSGyroAnalysisTool/GpsGyroAnalysisTool/GpsGyroAnalysisTool/Libraries/XMCLib/inc\xmc_usic.h **** * USIC channel transmit FIFO interrupt node pointers
 356:D:/Users/Beheerder/Desktop/GPSBox/SensorMaritime-SensorBox/Sensorbox_firmware/GPSGyroAnalysisTool/GpsGyroAnalysisTool/GpsGyroAnalysisTool/Libraries/XMCLib/inc\xmc_usic.h **** */
 357:D:/Users/Beheerder/Desktop/GPSBox/SensorMaritime-SensorBox/Sensorbox_firmware/GPSGyroAnalysisTool/GpsGyroAnalysisTool/GpsGyroAnalysisTool/Libraries/XMCLib/inc\xmc_usic.h **** typedef enum XMC_USIC_CH_TXFIFO_INTERRUPT_NODE_POINTER
 358:D:/Users/Beheerder/Desktop/GPSBox/SensorMaritime-SensorBox/Sensorbox_firmware/GPSGyroAnalysisTool/GpsGyroAnalysisTool/GpsGyroAnalysisTool/Libraries/XMCLib/inc\xmc_usic.h **** {
 359:D:/Users/Beheerder/Desktop/GPSBox/SensorMaritime-SensorBox/Sensorbox_firmware/GPSGyroAnalysisTool/GpsGyroAnalysisTool/GpsGyroAnalysisTool/Libraries/XMCLib/inc\xmc_usic.h ****   XMC_USIC_CH_TXFIFO_INTERRUPT_NODE_POINTER_STANDARD  = USIC_CH_TBCTR_STBINP_Pos,  /**< Node pointe
 360:D:/Users/Beheerder/Desktop/GPSBox/SensorMaritime-SensorBox/Sensorbox_firmware/GPSGyroAnalysisTool/GpsGyroAnalysisTool/GpsGyroAnalysisTool/Libraries/XMCLib/inc\xmc_usic.h ****   XMC_USIC_CH_TXFIFO_INTERRUPT_NODE_POINTER_ALTERNATE = USIC_CH_TBCTR_ATBINP_Pos   /**< Node pointe
 361:D:/Users/Beheerder/Desktop/GPSBox/SensorMaritime-SensorBox/Sensorbox_firmware/GPSGyroAnalysisTool/GpsGyroAnalysisTool/GpsGyroAnalysisTool/Libraries/XMCLib/inc\xmc_usic.h **** } XMC_USIC_CH_TXFIFO_INTERRUPT_NODE_POINTER_t;
 362:D:/Users/Beheerder/Desktop/GPSBox/SensorMaritime-SensorBox/Sensorbox_firmware/GPSGyroAnalysisTool/GpsGyroAnalysisTool/GpsGyroAnalysisTool/Libraries/XMCLib/inc\xmc_usic.h **** 
 363:D:/Users/Beheerder/Desktop/GPSBox/SensorMaritime-SensorBox/Sensorbox_firmware/GPSGyroAnalysisTool/GpsGyroAnalysisTool/GpsGyroAnalysisTool/Libraries/XMCLib/inc\xmc_usic.h **** /**
 364:D:/Users/Beheerder/Desktop/GPSBox/SensorMaritime-SensorBox/Sensorbox_firmware/GPSGyroAnalysisTool/GpsGyroAnalysisTool/GpsGyroAnalysisTool/Libraries/XMCLib/inc\xmc_usic.h **** * USIC channel transmit FIFO event configuration
 365:D:/Users/Beheerder/Desktop/GPSBox/SensorMaritime-SensorBox/Sensorbox_firmware/GPSGyroAnalysisTool/GpsGyroAnalysisTool/GpsGyroAnalysisTool/Libraries/XMCLib/inc\xmc_usic.h **** */
 366:D:/Users/Beheerder/Desktop/GPSBox/SensorMaritime-SensorBox/Sensorbox_firmware/GPSGyroAnalysisTool/GpsGyroAnalysisTool/GpsGyroAnalysisTool/Libraries/XMCLib/inc\xmc_usic.h **** typedef enum XMC_USIC_CH_TXFIFO_EVENT_CONF
 367:D:/Users/Beheerder/Desktop/GPSBox/SensorMaritime-SensorBox/Sensorbox_firmware/GPSGyroAnalysisTool/GpsGyroAnalysisTool/GpsGyroAnalysisTool/Libraries/XMCLib/inc\xmc_usic.h **** {
 368:D:/Users/Beheerder/Desktop/GPSBox/SensorMaritime-SensorBox/Sensorbox_firmware/GPSGyroAnalysisTool/GpsGyroAnalysisTool/GpsGyroAnalysisTool/Libraries/XMCLib/inc\xmc_usic.h ****   XMC_USIC_CH_TXFIFO_EVENT_CONF_STANDARD  = USIC_CH_TBCTR_STBIEN_Msk,   /**< Enable FIFO standard t
 369:D:/Users/Beheerder/Desktop/GPSBox/SensorMaritime-SensorBox/Sensorbox_firmware/GPSGyroAnalysisTool/GpsGyroAnalysisTool/GpsGyroAnalysisTool/Libraries/XMCLib/inc\xmc_usic.h ****   XMC_USIC_CH_TXFIFO_EVENT_CONF_ERROR     = (int32_t)USIC_CH_TBCTR_TBERIEN_Msk  /**< Enable transmi
 370:D:/Users/Beheerder/Desktop/GPSBox/SensorMaritime-SensorBox/Sensorbox_firmware/GPSGyroAnalysisTool/GpsGyroAnalysisTool/GpsGyroAnalysisTool/Libraries/XMCLib/inc\xmc_usic.h **** } XMC_USIC_CH_TXFIFO_EVENT_CONF_t;
 371:D:/Users/Beheerder/Desktop/GPSBox/SensorMaritime-SensorBox/Sensorbox_firmware/GPSGyroAnalysisTool/GpsGyroAnalysisTool/GpsGyroAnalysisTool/Libraries/XMCLib/inc\xmc_usic.h **** 
 372:D:/Users/Beheerder/Desktop/GPSBox/SensorMaritime-SensorBox/Sensorbox_firmware/GPSGyroAnalysisTool/GpsGyroAnalysisTool/GpsGyroAnalysisTool/Libraries/XMCLib/inc\xmc_usic.h **** /**
 373:D:/Users/Beheerder/Desktop/GPSBox/SensorMaritime-SensorBox/Sensorbox_firmware/GPSGyroAnalysisTool/GpsGyroAnalysisTool/GpsGyroAnalysisTool/Libraries/XMCLib/inc\xmc_usic.h **** * USIC channel transmit FIFO status
 374:D:/Users/Beheerder/Desktop/GPSBox/SensorMaritime-SensorBox/Sensorbox_firmware/GPSGyroAnalysisTool/GpsGyroAnalysisTool/GpsGyroAnalysisTool/Libraries/XMCLib/inc\xmc_usic.h **** */
 375:D:/Users/Beheerder/Desktop/GPSBox/SensorMaritime-SensorBox/Sensorbox_firmware/GPSGyroAnalysisTool/GpsGyroAnalysisTool/GpsGyroAnalysisTool/Libraries/XMCLib/inc\xmc_usic.h **** typedef enum XMC_USIC_CH_TXFIFO_EVENT
 376:D:/Users/Beheerder/Desktop/GPSBox/SensorMaritime-SensorBox/Sensorbox_firmware/GPSGyroAnalysisTool/GpsGyroAnalysisTool/GpsGyroAnalysisTool/Libraries/XMCLib/inc\xmc_usic.h **** {
 377:D:/Users/Beheerder/Desktop/GPSBox/SensorMaritime-SensorBox/Sensorbox_firmware/GPSGyroAnalysisTool/GpsGyroAnalysisTool/GpsGyroAnalysisTool/Libraries/XMCLib/inc\xmc_usic.h ****   XMC_USIC_CH_TXFIFO_EVENT_STANDARD = USIC_CH_TRBSR_STBI_Msk,    /**< Transmit FIFO status: Standar
 378:D:/Users/Beheerder/Desktop/GPSBox/SensorMaritime-SensorBox/Sensorbox_firmware/GPSGyroAnalysisTool/GpsGyroAnalysisTool/GpsGyroAnalysisTool/Libraries/XMCLib/inc\xmc_usic.h ****   XMC_USIC_CH_TXFIFO_EVENT_ERROR    = USIC_CH_TRBSR_TBERI_Msk    /**< Transmit FIFO status: Error e
 379:D:/Users/Beheerder/Desktop/GPSBox/SensorMaritime-SensorBox/Sensorbox_firmware/GPSGyroAnalysisTool/GpsGyroAnalysisTool/GpsGyroAnalysisTool/Libraries/XMCLib/inc\xmc_usic.h **** } XMC_USIC_CH_TXFIFO_EVENT_t;
 380:D:/Users/Beheerder/Desktop/GPSBox/SensorMaritime-SensorBox/Sensorbox_firmware/GPSGyroAnalysisTool/GpsGyroAnalysisTool/GpsGyroAnalysisTool/Libraries/XMCLib/inc\xmc_usic.h **** 
 381:D:/Users/Beheerder/Desktop/GPSBox/SensorMaritime-SensorBox/Sensorbox_firmware/GPSGyroAnalysisTool/GpsGyroAnalysisTool/GpsGyroAnalysisTool/Libraries/XMCLib/inc\xmc_usic.h **** /**
 382:D:/Users/Beheerder/Desktop/GPSBox/SensorMaritime-SensorBox/Sensorbox_firmware/GPSGyroAnalysisTool/GpsGyroAnalysisTool/GpsGyroAnalysisTool/Libraries/XMCLib/inc\xmc_usic.h **** * USIC channel receive FIFO interrupt node pointers
 383:D:/Users/Beheerder/Desktop/GPSBox/SensorMaritime-SensorBox/Sensorbox_firmware/GPSGyroAnalysisTool/GpsGyroAnalysisTool/GpsGyroAnalysisTool/Libraries/XMCLib/inc\xmc_usic.h **** */
 384:D:/Users/Beheerder/Desktop/GPSBox/SensorMaritime-SensorBox/Sensorbox_firmware/GPSGyroAnalysisTool/GpsGyroAnalysisTool/GpsGyroAnalysisTool/Libraries/XMCLib/inc\xmc_usic.h **** typedef enum XMC_USIC_CH_RXFIFO_INTERRUPT_NODE_POINTER
 385:D:/Users/Beheerder/Desktop/GPSBox/SensorMaritime-SensorBox/Sensorbox_firmware/GPSGyroAnalysisTool/GpsGyroAnalysisTool/GpsGyroAnalysisTool/Libraries/XMCLib/inc\xmc_usic.h **** {
 386:D:/Users/Beheerder/Desktop/GPSBox/SensorMaritime-SensorBox/Sensorbox_firmware/GPSGyroAnalysisTool/GpsGyroAnalysisTool/GpsGyroAnalysisTool/Libraries/XMCLib/inc\xmc_usic.h ****   XMC_USIC_CH_RXFIFO_INTERRUPT_NODE_POINTER_STANDARD  = USIC_CH_RBCTR_SRBINP_Pos, /**< Node pointer
 387:D:/Users/Beheerder/Desktop/GPSBox/SensorMaritime-SensorBox/Sensorbox_firmware/GPSGyroAnalysisTool/GpsGyroAnalysisTool/GpsGyroAnalysisTool/Libraries/XMCLib/inc\xmc_usic.h ****   XMC_USIC_CH_RXFIFO_INTERRUPT_NODE_POINTER_ALTERNATE = USIC_CH_RBCTR_ARBINP_Pos  /**< Node pointer
 388:D:/Users/Beheerder/Desktop/GPSBox/SensorMaritime-SensorBox/Sensorbox_firmware/GPSGyroAnalysisTool/GpsGyroAnalysisTool/GpsGyroAnalysisTool/Libraries/XMCLib/inc\xmc_usic.h **** } XMC_USIC_CH_RXFIFO_INTERRUPT_NODE_POINTER_t;
 389:D:/Users/Beheerder/Desktop/GPSBox/SensorMaritime-SensorBox/Sensorbox_firmware/GPSGyroAnalysisTool/GpsGyroAnalysisTool/GpsGyroAnalysisTool/Libraries/XMCLib/inc\xmc_usic.h **** 
 390:D:/Users/Beheerder/Desktop/GPSBox/SensorMaritime-SensorBox/Sensorbox_firmware/GPSGyroAnalysisTool/GpsGyroAnalysisTool/GpsGyroAnalysisTool/Libraries/XMCLib/inc\xmc_usic.h **** /**
 391:D:/Users/Beheerder/Desktop/GPSBox/SensorMaritime-SensorBox/Sensorbox_firmware/GPSGyroAnalysisTool/GpsGyroAnalysisTool/GpsGyroAnalysisTool/Libraries/XMCLib/inc\xmc_usic.h **** * USIC channel receive FIFO event configuration
 392:D:/Users/Beheerder/Desktop/GPSBox/SensorMaritime-SensorBox/Sensorbox_firmware/GPSGyroAnalysisTool/GpsGyroAnalysisTool/GpsGyroAnalysisTool/Libraries/XMCLib/inc\xmc_usic.h **** */
 393:D:/Users/Beheerder/Desktop/GPSBox/SensorMaritime-SensorBox/Sensorbox_firmware/GPSGyroAnalysisTool/GpsGyroAnalysisTool/GpsGyroAnalysisTool/Libraries/XMCLib/inc\xmc_usic.h **** typedef enum XMC_USIC_CH_RXFIFO_EVENT_CONF
 394:D:/Users/Beheerder/Desktop/GPSBox/SensorMaritime-SensorBox/Sensorbox_firmware/GPSGyroAnalysisTool/GpsGyroAnalysisTool/GpsGyroAnalysisTool/Libraries/XMCLib/inc\xmc_usic.h **** {
 395:D:/Users/Beheerder/Desktop/GPSBox/SensorMaritime-SensorBox/Sensorbox_firmware/GPSGyroAnalysisTool/GpsGyroAnalysisTool/GpsGyroAnalysisTool/Libraries/XMCLib/inc\xmc_usic.h ****   XMC_USIC_CH_RXFIFO_EVENT_CONF_STANDARD  = USIC_CH_RBCTR_SRBIEN_Msk,   /**< Enable FIFO standard r
 396:D:/Users/Beheerder/Desktop/GPSBox/SensorMaritime-SensorBox/Sensorbox_firmware/GPSGyroAnalysisTool/GpsGyroAnalysisTool/GpsGyroAnalysisTool/Libraries/XMCLib/inc\xmc_usic.h ****   XMC_USIC_CH_RXFIFO_EVENT_CONF_ERROR     = (int32_t)USIC_CH_RBCTR_RBERIEN_Msk,  /**< Enable receiv
 397:D:/Users/Beheerder/Desktop/GPSBox/SensorMaritime-SensorBox/Sensorbox_firmware/GPSGyroAnalysisTool/GpsGyroAnalysisTool/GpsGyroAnalysisTool/Libraries/XMCLib/inc\xmc_usic.h ****   XMC_USIC_CH_RXFIFO_EVENT_CONF_ALTERNATE = USIC_CH_RBCTR_ARBIEN_Msk   /**< Enable FIFO alternative
 398:D:/Users/Beheerder/Desktop/GPSBox/SensorMaritime-SensorBox/Sensorbox_firmware/GPSGyroAnalysisTool/GpsGyroAnalysisTool/GpsGyroAnalysisTool/Libraries/XMCLib/inc\xmc_usic.h **** } XMC_USIC_CH_RXFIFO_EVENT_CONF_t;
 399:D:/Users/Beheerder/Desktop/GPSBox/SensorMaritime-SensorBox/Sensorbox_firmware/GPSGyroAnalysisTool/GpsGyroAnalysisTool/GpsGyroAnalysisTool/Libraries/XMCLib/inc\xmc_usic.h **** 
 400:D:/Users/Beheerder/Desktop/GPSBox/SensorMaritime-SensorBox/Sensorbox_firmware/GPSGyroAnalysisTool/GpsGyroAnalysisTool/GpsGyroAnalysisTool/Libraries/XMCLib/inc\xmc_usic.h **** /**
 401:D:/Users/Beheerder/Desktop/GPSBox/SensorMaritime-SensorBox/Sensorbox_firmware/GPSGyroAnalysisTool/GpsGyroAnalysisTool/GpsGyroAnalysisTool/Libraries/XMCLib/inc\xmc_usic.h **** * USIC channel receive FIFO status
 402:D:/Users/Beheerder/Desktop/GPSBox/SensorMaritime-SensorBox/Sensorbox_firmware/GPSGyroAnalysisTool/GpsGyroAnalysisTool/GpsGyroAnalysisTool/Libraries/XMCLib/inc\xmc_usic.h **** */
 403:D:/Users/Beheerder/Desktop/GPSBox/SensorMaritime-SensorBox/Sensorbox_firmware/GPSGyroAnalysisTool/GpsGyroAnalysisTool/GpsGyroAnalysisTool/Libraries/XMCLib/inc\xmc_usic.h **** typedef enum XMC_USIC_CH_RXFIFO_EVENT
 404:D:/Users/Beheerder/Desktop/GPSBox/SensorMaritime-SensorBox/Sensorbox_firmware/GPSGyroAnalysisTool/GpsGyroAnalysisTool/GpsGyroAnalysisTool/Libraries/XMCLib/inc\xmc_usic.h **** {
 405:D:/Users/Beheerder/Desktop/GPSBox/SensorMaritime-SensorBox/Sensorbox_firmware/GPSGyroAnalysisTool/GpsGyroAnalysisTool/GpsGyroAnalysisTool/Libraries/XMCLib/inc\xmc_usic.h ****   XMC_USIC_CH_RXFIFO_EVENT_STANDARD  = USIC_CH_TRBSR_SRBI_Msk,   /**< Receive FIFO status: Standard
 406:D:/Users/Beheerder/Desktop/GPSBox/SensorMaritime-SensorBox/Sensorbox_firmware/GPSGyroAnalysisTool/GpsGyroAnalysisTool/GpsGyroAnalysisTool/Libraries/XMCLib/inc\xmc_usic.h ****   XMC_USIC_CH_RXFIFO_EVENT_ERROR     = USIC_CH_TRBSR_RBERI_Msk,  /**< Receive FIFO status: Error ev
 407:D:/Users/Beheerder/Desktop/GPSBox/SensorMaritime-SensorBox/Sensorbox_firmware/GPSGyroAnalysisTool/GpsGyroAnalysisTool/GpsGyroAnalysisTool/Libraries/XMCLib/inc\xmc_usic.h ****   XMC_USIC_CH_RXFIFO_EVENT_ALTERNATE = USIC_CH_TRBSR_ARBI_Msk    /**< Receive FIFO status: Alternat
 408:D:/Users/Beheerder/Desktop/GPSBox/SensorMaritime-SensorBox/Sensorbox_firmware/GPSGyroAnalysisTool/GpsGyroAnalysisTool/GpsGyroAnalysisTool/Libraries/XMCLib/inc\xmc_usic.h **** } XMC_USIC_CH_RXFIFO_EVENT_t;
 409:D:/Users/Beheerder/Desktop/GPSBox/SensorMaritime-SensorBox/Sensorbox_firmware/GPSGyroAnalysisTool/GpsGyroAnalysisTool/GpsGyroAnalysisTool/Libraries/XMCLib/inc\xmc_usic.h **** 
 410:D:/Users/Beheerder/Desktop/GPSBox/SensorMaritime-SensorBox/Sensorbox_firmware/GPSGyroAnalysisTool/GpsGyroAnalysisTool/GpsGyroAnalysisTool/Libraries/XMCLib/inc\xmc_usic.h **** /**
 411:D:/Users/Beheerder/Desktop/GPSBox/SensorMaritime-SensorBox/Sensorbox_firmware/GPSGyroAnalysisTool/GpsGyroAnalysisTool/GpsGyroAnalysisTool/Libraries/XMCLib/inc\xmc_usic.h **** * USIC channel baudrate generator clock source
 412:D:/Users/Beheerder/Desktop/GPSBox/SensorMaritime-SensorBox/Sensorbox_firmware/GPSGyroAnalysisTool/GpsGyroAnalysisTool/GpsGyroAnalysisTool/Libraries/XMCLib/inc\xmc_usic.h **** */
 413:D:/Users/Beheerder/Desktop/GPSBox/SensorMaritime-SensorBox/Sensorbox_firmware/GPSGyroAnalysisTool/GpsGyroAnalysisTool/GpsGyroAnalysisTool/Libraries/XMCLib/inc\xmc_usic.h **** typedef enum XMC_USIC_CH_BRG_CLOCK_SOURCE
 414:D:/Users/Beheerder/Desktop/GPSBox/SensorMaritime-SensorBox/Sensorbox_firmware/GPSGyroAnalysisTool/GpsGyroAnalysisTool/GpsGyroAnalysisTool/Libraries/XMCLib/inc\xmc_usic.h **** {
 415:D:/Users/Beheerder/Desktop/GPSBox/SensorMaritime-SensorBox/Sensorbox_firmware/GPSGyroAnalysisTool/GpsGyroAnalysisTool/GpsGyroAnalysisTool/Libraries/XMCLib/inc\xmc_usic.h ****   XMC_USIC_CH_BRG_CLOCK_SOURCE_DIVIDER = 0x0UL, /**< Baudrate generator clock source : Source divid
 416:D:/Users/Beheerder/Desktop/GPSBox/SensorMaritime-SensorBox/Sensorbox_firmware/GPSGyroAnalysisTool/GpsGyroAnalysisTool/GpsGyroAnalysisTool/Libraries/XMCLib/inc\xmc_usic.h ****   XMC_USIC_CH_BRG_CLOCK_SOURCE_DX1T    = 0x2UL << USIC_CH_BRG_CLKSEL_Pos  /**< Baudrate generator c
 417:D:/Users/Beheerder/Desktop/GPSBox/SensorMaritime-SensorBox/Sensorbox_firmware/GPSGyroAnalysisTool/GpsGyroAnalysisTool/GpsGyroAnalysisTool/Libraries/XMCLib/inc\xmc_usic.h **** } XMC_USIC_CH_BRG_CLOCK_SOURCE_t;
 418:D:/Users/Beheerder/Desktop/GPSBox/SensorMaritime-SensorBox/Sensorbox_firmware/GPSGyroAnalysisTool/GpsGyroAnalysisTool/GpsGyroAnalysisTool/Libraries/XMCLib/inc\xmc_usic.h **** 
 419:D:/Users/Beheerder/Desktop/GPSBox/SensorMaritime-SensorBox/Sensorbox_firmware/GPSGyroAnalysisTool/GpsGyroAnalysisTool/GpsGyroAnalysisTool/Libraries/XMCLib/inc\xmc_usic.h **** /**
 420:D:/Users/Beheerder/Desktop/GPSBox/SensorMaritime-SensorBox/Sensorbox_firmware/GPSGyroAnalysisTool/GpsGyroAnalysisTool/GpsGyroAnalysisTool/Libraries/XMCLib/inc\xmc_usic.h **** * USIC channel baudrate generator divider mode
 421:D:/Users/Beheerder/Desktop/GPSBox/SensorMaritime-SensorBox/Sensorbox_firmware/GPSGyroAnalysisTool/GpsGyroAnalysisTool/GpsGyroAnalysisTool/Libraries/XMCLib/inc\xmc_usic.h **** */
 422:D:/Users/Beheerder/Desktop/GPSBox/SensorMaritime-SensorBox/Sensorbox_firmware/GPSGyroAnalysisTool/GpsGyroAnalysisTool/GpsGyroAnalysisTool/Libraries/XMCLib/inc\xmc_usic.h **** typedef enum XMC_USIC_CH_BRG_CLOCK_DIVIDER_MODE
 423:D:/Users/Beheerder/Desktop/GPSBox/SensorMaritime-SensorBox/Sensorbox_firmware/GPSGyroAnalysisTool/GpsGyroAnalysisTool/GpsGyroAnalysisTool/Libraries/XMCLib/inc\xmc_usic.h **** {
 424:D:/Users/Beheerder/Desktop/GPSBox/SensorMaritime-SensorBox/Sensorbox_firmware/GPSGyroAnalysisTool/GpsGyroAnalysisTool/GpsGyroAnalysisTool/Libraries/XMCLib/inc\xmc_usic.h ****   XMC_USIC_CH_BRG_CLOCK_DIVIDER_MODE_DISABLED   = 0x0UL, /**< Baudrate generator clock divider: Dis
 425:D:/Users/Beheerder/Desktop/GPSBox/SensorMaritime-SensorBox/Sensorbox_firmware/GPSGyroAnalysisTool/GpsGyroAnalysisTool/GpsGyroAnalysisTool/Libraries/XMCLib/inc\xmc_usic.h ****   XMC_USIC_CH_BRG_CLOCK_DIVIDER_MODE_NORMAL     = 0x1UL << USIC_CH_FDR_DM_Pos, /**< Baudrate genera
 426:D:/Users/Beheerder/Desktop/GPSBox/SensorMaritime-SensorBox/Sensorbox_firmware/GPSGyroAnalysisTool/GpsGyroAnalysisTool/GpsGyroAnalysisTool/Libraries/XMCLib/inc\xmc_usic.h ****   XMC_USIC_CH_BRG_CLOCK_DIVIDER_MODE_FRACTIONAL = 0x2UL << USIC_CH_FDR_DM_Pos  /**< Baudrate genera
 427:D:/Users/Beheerder/Desktop/GPSBox/SensorMaritime-SensorBox/Sensorbox_firmware/GPSGyroAnalysisTool/GpsGyroAnalysisTool/GpsGyroAnalysisTool/Libraries/XMCLib/inc\xmc_usic.h **** } XMC_USIC_CH_BRG_CLOCK_DIVIDER_MODE_t;
 428:D:/Users/Beheerder/Desktop/GPSBox/SensorMaritime-SensorBox/Sensorbox_firmware/GPSGyroAnalysisTool/GpsGyroAnalysisTool/GpsGyroAnalysisTool/Libraries/XMCLib/inc\xmc_usic.h **** 
 429:D:/Users/Beheerder/Desktop/GPSBox/SensorMaritime-SensorBox/Sensorbox_firmware/GPSGyroAnalysisTool/GpsGyroAnalysisTool/GpsGyroAnalysisTool/Libraries/XMCLib/inc\xmc_usic.h **** /**
 430:D:/Users/Beheerder/Desktop/GPSBox/SensorMaritime-SensorBox/Sensorbox_firmware/GPSGyroAnalysisTool/GpsGyroAnalysisTool/GpsGyroAnalysisTool/Libraries/XMCLib/inc\xmc_usic.h **** * USIC channel baudrate generator master clock passive level
 431:D:/Users/Beheerder/Desktop/GPSBox/SensorMaritime-SensorBox/Sensorbox_firmware/GPSGyroAnalysisTool/GpsGyroAnalysisTool/GpsGyroAnalysisTool/Libraries/XMCLib/inc\xmc_usic.h **** */
 432:D:/Users/Beheerder/Desktop/GPSBox/SensorMaritime-SensorBox/Sensorbox_firmware/GPSGyroAnalysisTool/GpsGyroAnalysisTool/GpsGyroAnalysisTool/Libraries/XMCLib/inc\xmc_usic.h **** typedef enum XMC_USIC_CH_BRG_MASTER_CLOCK_PASSIVE_LEVEL
 433:D:/Users/Beheerder/Desktop/GPSBox/SensorMaritime-SensorBox/Sensorbox_firmware/GPSGyroAnalysisTool/GpsGyroAnalysisTool/GpsGyroAnalysisTool/Libraries/XMCLib/inc\xmc_usic.h **** {
 434:D:/Users/Beheerder/Desktop/GPSBox/SensorMaritime-SensorBox/Sensorbox_firmware/GPSGyroAnalysisTool/GpsGyroAnalysisTool/GpsGyroAnalysisTool/Libraries/XMCLib/inc\xmc_usic.h ****   XMC_USIC_CH_BRG_MASTER_CLOCK_PASSIVE_LEVEL_0 = 0x0UL, /**< Baudrate generator master clock passiv
 435:D:/Users/Beheerder/Desktop/GPSBox/SensorMaritime-SensorBox/Sensorbox_firmware/GPSGyroAnalysisTool/GpsGyroAnalysisTool/GpsGyroAnalysisTool/Libraries/XMCLib/inc\xmc_usic.h ****   XMC_USIC_CH_BRG_MASTER_CLOCK_PASSIVE_LEVEL_1 = 0x1UL << USIC_CH_BRG_MCLKCFG_Pos  /**< Baudrate ge
 436:D:/Users/Beheerder/Desktop/GPSBox/SensorMaritime-SensorBox/Sensorbox_firmware/GPSGyroAnalysisTool/GpsGyroAnalysisTool/GpsGyroAnalysisTool/Libraries/XMCLib/inc\xmc_usic.h **** } XMC_USIC_CH_BRG_MASTER_CLOCK_PASSIVE_LEVEL_t;
 437:D:/Users/Beheerder/Desktop/GPSBox/SensorMaritime-SensorBox/Sensorbox_firmware/GPSGyroAnalysisTool/GpsGyroAnalysisTool/GpsGyroAnalysisTool/Libraries/XMCLib/inc\xmc_usic.h **** 
 438:D:/Users/Beheerder/Desktop/GPSBox/SensorMaritime-SensorBox/Sensorbox_firmware/GPSGyroAnalysisTool/GpsGyroAnalysisTool/GpsGyroAnalysisTool/Libraries/XMCLib/inc\xmc_usic.h **** /**
 439:D:/Users/Beheerder/Desktop/GPSBox/SensorMaritime-SensorBox/Sensorbox_firmware/GPSGyroAnalysisTool/GpsGyroAnalysisTool/GpsGyroAnalysisTool/Libraries/XMCLib/inc\xmc_usic.h **** * USIC channel baudrate generator shift clock passive level
 440:D:/Users/Beheerder/Desktop/GPSBox/SensorMaritime-SensorBox/Sensorbox_firmware/GPSGyroAnalysisTool/GpsGyroAnalysisTool/GpsGyroAnalysisTool/Libraries/XMCLib/inc\xmc_usic.h **** */
 441:D:/Users/Beheerder/Desktop/GPSBox/SensorMaritime-SensorBox/Sensorbox_firmware/GPSGyroAnalysisTool/GpsGyroAnalysisTool/GpsGyroAnalysisTool/Libraries/XMCLib/inc\xmc_usic.h **** typedef enum XMC_USIC_CH_BRG_SHIFT_CLOCK_PASSIVE_LEVEL
 442:D:/Users/Beheerder/Desktop/GPSBox/SensorMaritime-SensorBox/Sensorbox_firmware/GPSGyroAnalysisTool/GpsGyroAnalysisTool/GpsGyroAnalysisTool/Libraries/XMCLib/inc\xmc_usic.h **** {
 443:D:/Users/Beheerder/Desktop/GPSBox/SensorMaritime-SensorBox/Sensorbox_firmware/GPSGyroAnalysisTool/GpsGyroAnalysisTool/GpsGyroAnalysisTool/Libraries/XMCLib/inc\xmc_usic.h ****   XMC_USIC_CH_BRG_SHIFT_CLOCK_PASSIVE_LEVEL_0_DELAY_DISABLED = 0x0UL, /**< Shift clock passive leve
 444:D:/Users/Beheerder/Desktop/GPSBox/SensorMaritime-SensorBox/Sensorbox_firmware/GPSGyroAnalysisTool/GpsGyroAnalysisTool/GpsGyroAnalysisTool/Libraries/XMCLib/inc\xmc_usic.h ****   XMC_USIC_CH_BRG_SHIFT_CLOCK_PASSIVE_LEVEL_1_DELAY_DISABLED = 0x1UL << USIC_CH_BRG_SCLKCFG_Pos, /*
 445:D:/Users/Beheerder/Desktop/GPSBox/SensorMaritime-SensorBox/Sensorbox_firmware/GPSGyroAnalysisTool/GpsGyroAnalysisTool/GpsGyroAnalysisTool/Libraries/XMCLib/inc\xmc_usic.h ****   XMC_USIC_CH_BRG_SHIFT_CLOCK_PASSIVE_LEVEL_0_DELAY_ENABLED  = (int32_t)(0x2UL << USIC_CH_BRG_SCLKC
 446:D:/Users/Beheerder/Desktop/GPSBox/SensorMaritime-SensorBox/Sensorbox_firmware/GPSGyroAnalysisTool/GpsGyroAnalysisTool/GpsGyroAnalysisTool/Libraries/XMCLib/inc\xmc_usic.h ****   XMC_USIC_CH_BRG_SHIFT_CLOCK_PASSIVE_LEVEL_1_DELAY_ENABLED  = (int32_t)(0x3UL << USIC_CH_BRG_SCLKC
 447:D:/Users/Beheerder/Desktop/GPSBox/SensorMaritime-SensorBox/Sensorbox_firmware/GPSGyroAnalysisTool/GpsGyroAnalysisTool/GpsGyroAnalysisTool/Libraries/XMCLib/inc\xmc_usic.h **** } XMC_USIC_CH_BRG_SHIFT_CLOCK_PASSIVE_LEVEL_t;
 448:D:/Users/Beheerder/Desktop/GPSBox/SensorMaritime-SensorBox/Sensorbox_firmware/GPSGyroAnalysisTool/GpsGyroAnalysisTool/GpsGyroAnalysisTool/Libraries/XMCLib/inc\xmc_usic.h **** 
 449:D:/Users/Beheerder/Desktop/GPSBox/SensorMaritime-SensorBox/Sensorbox_firmware/GPSGyroAnalysisTool/GpsGyroAnalysisTool/GpsGyroAnalysisTool/Libraries/XMCLib/inc\xmc_usic.h **** /**
 450:D:/Users/Beheerder/Desktop/GPSBox/SensorMaritime-SensorBox/Sensorbox_firmware/GPSGyroAnalysisTool/GpsGyroAnalysisTool/GpsGyroAnalysisTool/Libraries/XMCLib/inc\xmc_usic.h **** * USIC channel baudrate generator shift clock output
 451:D:/Users/Beheerder/Desktop/GPSBox/SensorMaritime-SensorBox/Sensorbox_firmware/GPSGyroAnalysisTool/GpsGyroAnalysisTool/GpsGyroAnalysisTool/Libraries/XMCLib/inc\xmc_usic.h **** */
 452:D:/Users/Beheerder/Desktop/GPSBox/SensorMaritime-SensorBox/Sensorbox_firmware/GPSGyroAnalysisTool/GpsGyroAnalysisTool/GpsGyroAnalysisTool/Libraries/XMCLib/inc\xmc_usic.h **** typedef enum XMC_USIC_CH_BRG_SHIFT_CLOCK_OUTPUT
 453:D:/Users/Beheerder/Desktop/GPSBox/SensorMaritime-SensorBox/Sensorbox_firmware/GPSGyroAnalysisTool/GpsGyroAnalysisTool/GpsGyroAnalysisTool/Libraries/XMCLib/inc\xmc_usic.h **** {
 454:D:/Users/Beheerder/Desktop/GPSBox/SensorMaritime-SensorBox/Sensorbox_firmware/GPSGyroAnalysisTool/GpsGyroAnalysisTool/GpsGyroAnalysisTool/Libraries/XMCLib/inc\xmc_usic.h ****   XMC_USIC_CH_BRG_SHIFT_CLOCK_OUTPUT_SCLK = 0x0UL, /**< Baudrate generator shift clock output: SCL.
 455:D:/Users/Beheerder/Desktop/GPSBox/SensorMaritime-SensorBox/Sensorbox_firmware/GPSGyroAnalysisTool/GpsGyroAnalysisTool/GpsGyroAnalysisTool/Libraries/XMCLib/inc\xmc_usic.h ****   XMC_USIC_CH_BRG_SHIFT_CLOCK_OUTPUT_DX1 = 0x1UL << USIC_CH_BRG_SCLKOSEL_Pos   /**< Baudrate genera
 456:D:/Users/Beheerder/Desktop/GPSBox/SensorMaritime-SensorBox/Sensorbox_firmware/GPSGyroAnalysisTool/GpsGyroAnalysisTool/GpsGyroAnalysisTool/Libraries/XMCLib/inc\xmc_usic.h **** } XMC_USIC_CH_BRG_SHIFT_CLOCK_OUTPUT_t;
 457:D:/Users/Beheerder/Desktop/GPSBox/SensorMaritime-SensorBox/Sensorbox_firmware/GPSGyroAnalysisTool/GpsGyroAnalysisTool/GpsGyroAnalysisTool/Libraries/XMCLib/inc\xmc_usic.h **** 
 458:D:/Users/Beheerder/Desktop/GPSBox/SensorMaritime-SensorBox/Sensorbox_firmware/GPSGyroAnalysisTool/GpsGyroAnalysisTool/GpsGyroAnalysisTool/Libraries/XMCLib/inc\xmc_usic.h **** /**
 459:D:/Users/Beheerder/Desktop/GPSBox/SensorMaritime-SensorBox/Sensorbox_firmware/GPSGyroAnalysisTool/GpsGyroAnalysisTool/GpsGyroAnalysisTool/Libraries/XMCLib/inc\xmc_usic.h **** * USIC channel shift direction.
 460:D:/Users/Beheerder/Desktop/GPSBox/SensorMaritime-SensorBox/Sensorbox_firmware/GPSGyroAnalysisTool/GpsGyroAnalysisTool/GpsGyroAnalysisTool/Libraries/XMCLib/inc\xmc_usic.h **** * Defines the shift direction of the data words for transmission and reception
 461:D:/Users/Beheerder/Desktop/GPSBox/SensorMaritime-SensorBox/Sensorbox_firmware/GPSGyroAnalysisTool/GpsGyroAnalysisTool/GpsGyroAnalysisTool/Libraries/XMCLib/inc\xmc_usic.h **** */
 462:D:/Users/Beheerder/Desktop/GPSBox/SensorMaritime-SensorBox/Sensorbox_firmware/GPSGyroAnalysisTool/GpsGyroAnalysisTool/GpsGyroAnalysisTool/Libraries/XMCLib/inc\xmc_usic.h **** typedef enum XMC_USIC_CH_SHIFT_DIRECTION
 463:D:/Users/Beheerder/Desktop/GPSBox/SensorMaritime-SensorBox/Sensorbox_firmware/GPSGyroAnalysisTool/GpsGyroAnalysisTool/GpsGyroAnalysisTool/Libraries/XMCLib/inc\xmc_usic.h **** {
 464:D:/Users/Beheerder/Desktop/GPSBox/SensorMaritime-SensorBox/Sensorbox_firmware/GPSGyroAnalysisTool/GpsGyroAnalysisTool/GpsGyroAnalysisTool/Libraries/XMCLib/inc\xmc_usic.h ****   XMC_USIC_CH_SHIFT_DIRECTION_LSB_FIRST = 0x0UL, /**< Shift LSB first. The first data bit of a data
 465:D:/Users/Beheerder/Desktop/GPSBox/SensorMaritime-SensorBox/Sensorbox_firmware/GPSGyroAnalysisTool/GpsGyroAnalysisTool/GpsGyroAnalysisTool/Libraries/XMCLib/inc\xmc_usic.h ****   XMC_USIC_CH_SHIFT_DIRECTION_MSB_FIRST = 0x1UL << USIC_CH_SCTR_SDIR_Pos /**< Shift MSB first. The 
 466:D:/Users/Beheerder/Desktop/GPSBox/SensorMaritime-SensorBox/Sensorbox_firmware/GPSGyroAnalysisTool/GpsGyroAnalysisTool/GpsGyroAnalysisTool/Libraries/XMCLib/inc\xmc_usic.h **** } XMC_USIC_CH_SHIFT_DIRECTION_t;
 467:D:/Users/Beheerder/Desktop/GPSBox/SensorMaritime-SensorBox/Sensorbox_firmware/GPSGyroAnalysisTool/GpsGyroAnalysisTool/GpsGyroAnalysisTool/Libraries/XMCLib/inc\xmc_usic.h **** 
 468:D:/Users/Beheerder/Desktop/GPSBox/SensorMaritime-SensorBox/Sensorbox_firmware/GPSGyroAnalysisTool/GpsGyroAnalysisTool/GpsGyroAnalysisTool/Libraries/XMCLib/inc\xmc_usic.h **** 
 469:D:/Users/Beheerder/Desktop/GPSBox/SensorMaritime-SensorBox/Sensorbox_firmware/GPSGyroAnalysisTool/GpsGyroAnalysisTool/GpsGyroAnalysisTool/Libraries/XMCLib/inc\xmc_usic.h **** /*******************************************************************************
 470:D:/Users/Beheerder/Desktop/GPSBox/SensorMaritime-SensorBox/Sensorbox_firmware/GPSGyroAnalysisTool/GpsGyroAnalysisTool/GpsGyroAnalysisTool/Libraries/XMCLib/inc\xmc_usic.h ****  * DATA STRUCTURES
 471:D:/Users/Beheerder/Desktop/GPSBox/SensorMaritime-SensorBox/Sensorbox_firmware/GPSGyroAnalysisTool/GpsGyroAnalysisTool/GpsGyroAnalysisTool/Libraries/XMCLib/inc\xmc_usic.h ****  *******************************************************************************/
 472:D:/Users/Beheerder/Desktop/GPSBox/SensorMaritime-SensorBox/Sensorbox_firmware/GPSGyroAnalysisTool/GpsGyroAnalysisTool/GpsGyroAnalysisTool/Libraries/XMCLib/inc\xmc_usic.h **** 
 473:D:/Users/Beheerder/Desktop/GPSBox/SensorMaritime-SensorBox/Sensorbox_firmware/GPSGyroAnalysisTool/GpsGyroAnalysisTool/GpsGyroAnalysisTool/Libraries/XMCLib/inc\xmc_usic.h **** /*Anonymous structure/union guard start*/
 474:D:/Users/Beheerder/Desktop/GPSBox/SensorMaritime-SensorBox/Sensorbox_firmware/GPSGyroAnalysisTool/GpsGyroAnalysisTool/GpsGyroAnalysisTool/Libraries/XMCLib/inc\xmc_usic.h **** #if defined(__CC_ARM)
 475:D:/Users/Beheerder/Desktop/GPSBox/SensorMaritime-SensorBox/Sensorbox_firmware/GPSGyroAnalysisTool/GpsGyroAnalysisTool/GpsGyroAnalysisTool/Libraries/XMCLib/inc\xmc_usic.h ****   #pragma push
 476:D:/Users/Beheerder/Desktop/GPSBox/SensorMaritime-SensorBox/Sensorbox_firmware/GPSGyroAnalysisTool/GpsGyroAnalysisTool/GpsGyroAnalysisTool/Libraries/XMCLib/inc\xmc_usic.h ****   #pragma anon_unions
 477:D:/Users/Beheerder/Desktop/GPSBox/SensorMaritime-SensorBox/Sensorbox_firmware/GPSGyroAnalysisTool/GpsGyroAnalysisTool/GpsGyroAnalysisTool/Libraries/XMCLib/inc\xmc_usic.h **** #elif defined(__TASKING__)
 478:D:/Users/Beheerder/Desktop/GPSBox/SensorMaritime-SensorBox/Sensorbox_firmware/GPSGyroAnalysisTool/GpsGyroAnalysisTool/GpsGyroAnalysisTool/Libraries/XMCLib/inc\xmc_usic.h ****   #pragma warning 586
 479:D:/Users/Beheerder/Desktop/GPSBox/SensorMaritime-SensorBox/Sensorbox_firmware/GPSGyroAnalysisTool/GpsGyroAnalysisTool/GpsGyroAnalysisTool/Libraries/XMCLib/inc\xmc_usic.h **** #endif
 480:D:/Users/Beheerder/Desktop/GPSBox/SensorMaritime-SensorBox/Sensorbox_firmware/GPSGyroAnalysisTool/GpsGyroAnalysisTool/GpsGyroAnalysisTool/Libraries/XMCLib/inc\xmc_usic.h **** 
 481:D:/Users/Beheerder/Desktop/GPSBox/SensorMaritime-SensorBox/Sensorbox_firmware/GPSGyroAnalysisTool/GpsGyroAnalysisTool/GpsGyroAnalysisTool/Libraries/XMCLib/inc\xmc_usic.h **** /**
 482:D:/Users/Beheerder/Desktop/GPSBox/SensorMaritime-SensorBox/Sensorbox_firmware/GPSGyroAnalysisTool/GpsGyroAnalysisTool/GpsGyroAnalysisTool/Libraries/XMCLib/inc\xmc_usic.h ****  * USIC module structure
 483:D:/Users/Beheerder/Desktop/GPSBox/SensorMaritime-SensorBox/Sensorbox_firmware/GPSGyroAnalysisTool/GpsGyroAnalysisTool/GpsGyroAnalysisTool/Libraries/XMCLib/inc\xmc_usic.h ****  */
 484:D:/Users/Beheerder/Desktop/GPSBox/SensorMaritime-SensorBox/Sensorbox_firmware/GPSGyroAnalysisTool/GpsGyroAnalysisTool/GpsGyroAnalysisTool/Libraries/XMCLib/inc\xmc_usic.h **** typedef USIC_GLOBAL_TypeDef XMC_USIC_t;
 485:D:/Users/Beheerder/Desktop/GPSBox/SensorMaritime-SensorBox/Sensorbox_firmware/GPSGyroAnalysisTool/GpsGyroAnalysisTool/GpsGyroAnalysisTool/Libraries/XMCLib/inc\xmc_usic.h **** 
 486:D:/Users/Beheerder/Desktop/GPSBox/SensorMaritime-SensorBox/Sensorbox_firmware/GPSGyroAnalysisTool/GpsGyroAnalysisTool/GpsGyroAnalysisTool/Libraries/XMCLib/inc\xmc_usic.h **** /**
 487:D:/Users/Beheerder/Desktop/GPSBox/SensorMaritime-SensorBox/Sensorbox_firmware/GPSGyroAnalysisTool/GpsGyroAnalysisTool/GpsGyroAnalysisTool/Libraries/XMCLib/inc\xmc_usic.h ****  * USIC channel structure.<br> The members of the structure are same as in the device header file, 
 488:D:/Users/Beheerder/Desktop/GPSBox/SensorMaritime-SensorBox/Sensorbox_firmware/GPSGyroAnalysisTool/GpsGyroAnalysisTool/GpsGyroAnalysisTool/Libraries/XMCLib/inc\xmc_usic.h ****  * except for some registers.
 489:D:/Users/Beheerder/Desktop/GPSBox/SensorMaritime-SensorBox/Sensorbox_firmware/GPSGyroAnalysisTool/GpsGyroAnalysisTool/GpsGyroAnalysisTool/Libraries/XMCLib/inc\xmc_usic.h ****  * DX0CR, DX1CR, DX2CR, DX3CR, DX4CR and DX5CR are replaced with the array DXCR[6].
 490:D:/Users/Beheerder/Desktop/GPSBox/SensorMaritime-SensorBox/Sensorbox_firmware/GPSGyroAnalysisTool/GpsGyroAnalysisTool/GpsGyroAnalysisTool/Libraries/XMCLib/inc\xmc_usic.h ****  * TBUF0 to TBUF31 are replaced with TBUF[32].
 491:D:/Users/Beheerder/Desktop/GPSBox/SensorMaritime-SensorBox/Sensorbox_firmware/GPSGyroAnalysisTool/GpsGyroAnalysisTool/GpsGyroAnalysisTool/Libraries/XMCLib/inc\xmc_usic.h ****  * IN0 to IN31 are replaced with IN[32].
 492:D:/Users/Beheerder/Desktop/GPSBox/SensorMaritime-SensorBox/Sensorbox_firmware/GPSGyroAnalysisTool/GpsGyroAnalysisTool/GpsGyroAnalysisTool/Libraries/XMCLib/inc\xmc_usic.h ****  */
 493:D:/Users/Beheerder/Desktop/GPSBox/SensorMaritime-SensorBox/Sensorbox_firmware/GPSGyroAnalysisTool/GpsGyroAnalysisTool/GpsGyroAnalysisTool/Libraries/XMCLib/inc\xmc_usic.h **** typedef struct XMC_USIC_CH
 494:D:/Users/Beheerder/Desktop/GPSBox/SensorMaritime-SensorBox/Sensorbox_firmware/GPSGyroAnalysisTool/GpsGyroAnalysisTool/GpsGyroAnalysisTool/Libraries/XMCLib/inc\xmc_usic.h **** {
 495:D:/Users/Beheerder/Desktop/GPSBox/SensorMaritime-SensorBox/Sensorbox_firmware/GPSGyroAnalysisTool/GpsGyroAnalysisTool/GpsGyroAnalysisTool/Libraries/XMCLib/inc\xmc_usic.h ****   __I  uint32_t  RESERVED0;
 496:D:/Users/Beheerder/Desktop/GPSBox/SensorMaritime-SensorBox/Sensorbox_firmware/GPSGyroAnalysisTool/GpsGyroAnalysisTool/GpsGyroAnalysisTool/Libraries/XMCLib/inc\xmc_usic.h ****   __I  uint32_t  CCFG;			/**< Channel configuration register*/
 497:D:/Users/Beheerder/Desktop/GPSBox/SensorMaritime-SensorBox/Sensorbox_firmware/GPSGyroAnalysisTool/GpsGyroAnalysisTool/GpsGyroAnalysisTool/Libraries/XMCLib/inc\xmc_usic.h ****   __I  uint32_t  RESERVED1;
 498:D:/Users/Beheerder/Desktop/GPSBox/SensorMaritime-SensorBox/Sensorbox_firmware/GPSGyroAnalysisTool/GpsGyroAnalysisTool/GpsGyroAnalysisTool/Libraries/XMCLib/inc\xmc_usic.h ****   __IO uint32_t  KSCFG;			/**< Kernel state configuration register*/
 499:D:/Users/Beheerder/Desktop/GPSBox/SensorMaritime-SensorBox/Sensorbox_firmware/GPSGyroAnalysisTool/GpsGyroAnalysisTool/GpsGyroAnalysisTool/Libraries/XMCLib/inc\xmc_usic.h ****   __IO uint32_t  FDR;			/**< Fractional divider configuration register*/
 500:D:/Users/Beheerder/Desktop/GPSBox/SensorMaritime-SensorBox/Sensorbox_firmware/GPSGyroAnalysisTool/GpsGyroAnalysisTool/GpsGyroAnalysisTool/Libraries/XMCLib/inc\xmc_usic.h ****   __IO uint32_t  BRG;			/**< Baud rate generator register*/
 501:D:/Users/Beheerder/Desktop/GPSBox/SensorMaritime-SensorBox/Sensorbox_firmware/GPSGyroAnalysisTool/GpsGyroAnalysisTool/GpsGyroAnalysisTool/Libraries/XMCLib/inc\xmc_usic.h ****   __IO uint32_t  INPR;			/**< Interrupt node pointer register*/
 502:D:/Users/Beheerder/Desktop/GPSBox/SensorMaritime-SensorBox/Sensorbox_firmware/GPSGyroAnalysisTool/GpsGyroAnalysisTool/GpsGyroAnalysisTool/Libraries/XMCLib/inc\xmc_usic.h ****   __IO uint32_t  DXCR[6];		/**< Input control registers DX0 to DX5.*/
 503:D:/Users/Beheerder/Desktop/GPSBox/SensorMaritime-SensorBox/Sensorbox_firmware/GPSGyroAnalysisTool/GpsGyroAnalysisTool/GpsGyroAnalysisTool/Libraries/XMCLib/inc\xmc_usic.h ****   __IO uint32_t  SCTR;			/**< Shift control register*/
 504:D:/Users/Beheerder/Desktop/GPSBox/SensorMaritime-SensorBox/Sensorbox_firmware/GPSGyroAnalysisTool/GpsGyroAnalysisTool/GpsGyroAnalysisTool/Libraries/XMCLib/inc\xmc_usic.h ****   __IO uint32_t  TCSR;
 505:D:/Users/Beheerder/Desktop/GPSBox/SensorMaritime-SensorBox/Sensorbox_firmware/GPSGyroAnalysisTool/GpsGyroAnalysisTool/GpsGyroAnalysisTool/Libraries/XMCLib/inc\xmc_usic.h **** 
 506:D:/Users/Beheerder/Desktop/GPSBox/SensorMaritime-SensorBox/Sensorbox_firmware/GPSGyroAnalysisTool/GpsGyroAnalysisTool/GpsGyroAnalysisTool/Libraries/XMCLib/inc\xmc_usic.h ****   union {
 507:D:/Users/Beheerder/Desktop/GPSBox/SensorMaritime-SensorBox/Sensorbox_firmware/GPSGyroAnalysisTool/GpsGyroAnalysisTool/GpsGyroAnalysisTool/Libraries/XMCLib/inc\xmc_usic.h ****     __IO uint32_t  PCR_IICMode;	/**< I2C protocol configuration register*/
 508:D:/Users/Beheerder/Desktop/GPSBox/SensorMaritime-SensorBox/Sensorbox_firmware/GPSGyroAnalysisTool/GpsGyroAnalysisTool/GpsGyroAnalysisTool/Libraries/XMCLib/inc\xmc_usic.h ****     __IO uint32_t  PCR_IISMode; /**< I2S protocol configuration register*/
 509:D:/Users/Beheerder/Desktop/GPSBox/SensorMaritime-SensorBox/Sensorbox_firmware/GPSGyroAnalysisTool/GpsGyroAnalysisTool/GpsGyroAnalysisTool/Libraries/XMCLib/inc\xmc_usic.h ****     __IO uint32_t  PCR_SSCMode;	/**< SPI protocol configuration register*/
 510:D:/Users/Beheerder/Desktop/GPSBox/SensorMaritime-SensorBox/Sensorbox_firmware/GPSGyroAnalysisTool/GpsGyroAnalysisTool/GpsGyroAnalysisTool/Libraries/XMCLib/inc\xmc_usic.h ****     __IO uint32_t  PCR;			/**< Protocol configuration register*/
 511:D:/Users/Beheerder/Desktop/GPSBox/SensorMaritime-SensorBox/Sensorbox_firmware/GPSGyroAnalysisTool/GpsGyroAnalysisTool/GpsGyroAnalysisTool/Libraries/XMCLib/inc\xmc_usic.h ****     __IO uint32_t  PCR_ASCMode;	/**< UART protocol configuration register*/
 512:D:/Users/Beheerder/Desktop/GPSBox/SensorMaritime-SensorBox/Sensorbox_firmware/GPSGyroAnalysisTool/GpsGyroAnalysisTool/GpsGyroAnalysisTool/Libraries/XMCLib/inc\xmc_usic.h ****   };
 513:D:/Users/Beheerder/Desktop/GPSBox/SensorMaritime-SensorBox/Sensorbox_firmware/GPSGyroAnalysisTool/GpsGyroAnalysisTool/GpsGyroAnalysisTool/Libraries/XMCLib/inc\xmc_usic.h ****   __IO uint32_t  CCR;			/**< Channel control register*/
 514:D:/Users/Beheerder/Desktop/GPSBox/SensorMaritime-SensorBox/Sensorbox_firmware/GPSGyroAnalysisTool/GpsGyroAnalysisTool/GpsGyroAnalysisTool/Libraries/XMCLib/inc\xmc_usic.h ****   __IO uint32_t  CMTR;			/**< Capture mode timer register*/
 515:D:/Users/Beheerder/Desktop/GPSBox/SensorMaritime-SensorBox/Sensorbox_firmware/GPSGyroAnalysisTool/GpsGyroAnalysisTool/GpsGyroAnalysisTool/Libraries/XMCLib/inc\xmc_usic.h **** 
 516:D:/Users/Beheerder/Desktop/GPSBox/SensorMaritime-SensorBox/Sensorbox_firmware/GPSGyroAnalysisTool/GpsGyroAnalysisTool/GpsGyroAnalysisTool/Libraries/XMCLib/inc\xmc_usic.h ****   union {
 517:D:/Users/Beheerder/Desktop/GPSBox/SensorMaritime-SensorBox/Sensorbox_firmware/GPSGyroAnalysisTool/GpsGyroAnalysisTool/GpsGyroAnalysisTool/Libraries/XMCLib/inc\xmc_usic.h ****     __IO uint32_t  PSR_IICMode;	/**< I2C protocol status register*/
 518:D:/Users/Beheerder/Desktop/GPSBox/SensorMaritime-SensorBox/Sensorbox_firmware/GPSGyroAnalysisTool/GpsGyroAnalysisTool/GpsGyroAnalysisTool/Libraries/XMCLib/inc\xmc_usic.h ****     __IO uint32_t  PSR_IISMode;	/**< I2S protocol status register*/
 519:D:/Users/Beheerder/Desktop/GPSBox/SensorMaritime-SensorBox/Sensorbox_firmware/GPSGyroAnalysisTool/GpsGyroAnalysisTool/GpsGyroAnalysisTool/Libraries/XMCLib/inc\xmc_usic.h ****     __IO uint32_t  PSR_SSCMode;	/**< SPI protocol status register*/
 520:D:/Users/Beheerder/Desktop/GPSBox/SensorMaritime-SensorBox/Sensorbox_firmware/GPSGyroAnalysisTool/GpsGyroAnalysisTool/GpsGyroAnalysisTool/Libraries/XMCLib/inc\xmc_usic.h ****     __IO uint32_t  PSR;			/**< Protocol status register*/
 521:D:/Users/Beheerder/Desktop/GPSBox/SensorMaritime-SensorBox/Sensorbox_firmware/GPSGyroAnalysisTool/GpsGyroAnalysisTool/GpsGyroAnalysisTool/Libraries/XMCLib/inc\xmc_usic.h ****     __IO uint32_t  PSR_ASCMode;	/**< UART protocol status register*/
 522:D:/Users/Beheerder/Desktop/GPSBox/SensorMaritime-SensorBox/Sensorbox_firmware/GPSGyroAnalysisTool/GpsGyroAnalysisTool/GpsGyroAnalysisTool/Libraries/XMCLib/inc\xmc_usic.h ****   };
 523:D:/Users/Beheerder/Desktop/GPSBox/SensorMaritime-SensorBox/Sensorbox_firmware/GPSGyroAnalysisTool/GpsGyroAnalysisTool/GpsGyroAnalysisTool/Libraries/XMCLib/inc\xmc_usic.h ****   __O  uint32_t  PSCR;			/**< Protocol status clear register*/
 524:D:/Users/Beheerder/Desktop/GPSBox/SensorMaritime-SensorBox/Sensorbox_firmware/GPSGyroAnalysisTool/GpsGyroAnalysisTool/GpsGyroAnalysisTool/Libraries/XMCLib/inc\xmc_usic.h ****   __I  uint32_t  RBUFSR;		/**< Receive buffer status register*/
 525:D:/Users/Beheerder/Desktop/GPSBox/SensorMaritime-SensorBox/Sensorbox_firmware/GPSGyroAnalysisTool/GpsGyroAnalysisTool/GpsGyroAnalysisTool/Libraries/XMCLib/inc\xmc_usic.h ****   __I  uint32_t  RBUF;			/**< Receive buffer register*/
 526:D:/Users/Beheerder/Desktop/GPSBox/SensorMaritime-SensorBox/Sensorbox_firmware/GPSGyroAnalysisTool/GpsGyroAnalysisTool/GpsGyroAnalysisTool/Libraries/XMCLib/inc\xmc_usic.h ****   __I  uint32_t  RBUFD;			/**< Debug mode receive buffer register*/
 527:D:/Users/Beheerder/Desktop/GPSBox/SensorMaritime-SensorBox/Sensorbox_firmware/GPSGyroAnalysisTool/GpsGyroAnalysisTool/GpsGyroAnalysisTool/Libraries/XMCLib/inc\xmc_usic.h ****   __I  uint32_t  RBUF0;			/**< Receive buffer 0*/
 528:D:/Users/Beheerder/Desktop/GPSBox/SensorMaritime-SensorBox/Sensorbox_firmware/GPSGyroAnalysisTool/GpsGyroAnalysisTool/GpsGyroAnalysisTool/Libraries/XMCLib/inc\xmc_usic.h ****   __I  uint32_t  RBUF1;			/**< Receive buffer 1*/
 529:D:/Users/Beheerder/Desktop/GPSBox/SensorMaritime-SensorBox/Sensorbox_firmware/GPSGyroAnalysisTool/GpsGyroAnalysisTool/GpsGyroAnalysisTool/Libraries/XMCLib/inc\xmc_usic.h ****   __I  uint32_t  RBUF01SR;		/**< Receive buffer status register*/
 530:D:/Users/Beheerder/Desktop/GPSBox/SensorMaritime-SensorBox/Sensorbox_firmware/GPSGyroAnalysisTool/GpsGyroAnalysisTool/GpsGyroAnalysisTool/Libraries/XMCLib/inc\xmc_usic.h ****   __O  uint32_t  FMR;			/**< Flag modification register*/
 531:D:/Users/Beheerder/Desktop/GPSBox/SensorMaritime-SensorBox/Sensorbox_firmware/GPSGyroAnalysisTool/GpsGyroAnalysisTool/GpsGyroAnalysisTool/Libraries/XMCLib/inc\xmc_usic.h ****   __I  uint32_t  RESERVED2[5];
 532:D:/Users/Beheerder/Desktop/GPSBox/SensorMaritime-SensorBox/Sensorbox_firmware/GPSGyroAnalysisTool/GpsGyroAnalysisTool/GpsGyroAnalysisTool/Libraries/XMCLib/inc\xmc_usic.h ****   __IO uint32_t  TBUF[32];		/**< Tranmsit buffer registers*/
 533:D:/Users/Beheerder/Desktop/GPSBox/SensorMaritime-SensorBox/Sensorbox_firmware/GPSGyroAnalysisTool/GpsGyroAnalysisTool/GpsGyroAnalysisTool/Libraries/XMCLib/inc\xmc_usic.h ****   __IO uint32_t  BYP;			/**< FIFO bypass register*/
 534:D:/Users/Beheerder/Desktop/GPSBox/SensorMaritime-SensorBox/Sensorbox_firmware/GPSGyroAnalysisTool/GpsGyroAnalysisTool/GpsGyroAnalysisTool/Libraries/XMCLib/inc\xmc_usic.h ****   __IO uint32_t  BYPCR;			/**< FIFO bypass control register*/
 535:D:/Users/Beheerder/Desktop/GPSBox/SensorMaritime-SensorBox/Sensorbox_firmware/GPSGyroAnalysisTool/GpsGyroAnalysisTool/GpsGyroAnalysisTool/Libraries/XMCLib/inc\xmc_usic.h ****   __IO uint32_t  TBCTR;			/**< Transmit FIFO control register*/
 536:D:/Users/Beheerder/Desktop/GPSBox/SensorMaritime-SensorBox/Sensorbox_firmware/GPSGyroAnalysisTool/GpsGyroAnalysisTool/GpsGyroAnalysisTool/Libraries/XMCLib/inc\xmc_usic.h ****   __IO uint32_t  RBCTR;			/**< Receive FIFO control register*/
 537:D:/Users/Beheerder/Desktop/GPSBox/SensorMaritime-SensorBox/Sensorbox_firmware/GPSGyroAnalysisTool/GpsGyroAnalysisTool/GpsGyroAnalysisTool/Libraries/XMCLib/inc\xmc_usic.h ****   __I  uint32_t  TRBPTR;		/**< Transmit/recive buffer pointer register*/
 538:D:/Users/Beheerder/Desktop/GPSBox/SensorMaritime-SensorBox/Sensorbox_firmware/GPSGyroAnalysisTool/GpsGyroAnalysisTool/GpsGyroAnalysisTool/Libraries/XMCLib/inc\xmc_usic.h ****   __IO uint32_t  TRBSR;			/**< Transmit/receive buffer status register*/
 539:D:/Users/Beheerder/Desktop/GPSBox/SensorMaritime-SensorBox/Sensorbox_firmware/GPSGyroAnalysisTool/GpsGyroAnalysisTool/GpsGyroAnalysisTool/Libraries/XMCLib/inc\xmc_usic.h ****   __O  uint32_t  TRBSCR;		/**< Transmit/receive buffer status clear register*/
 540:D:/Users/Beheerder/Desktop/GPSBox/SensorMaritime-SensorBox/Sensorbox_firmware/GPSGyroAnalysisTool/GpsGyroAnalysisTool/GpsGyroAnalysisTool/Libraries/XMCLib/inc\xmc_usic.h ****   __I  uint32_t  OUTR;			/**< Receive FIFO output register*/
 541:D:/Users/Beheerder/Desktop/GPSBox/SensorMaritime-SensorBox/Sensorbox_firmware/GPSGyroAnalysisTool/GpsGyroAnalysisTool/GpsGyroAnalysisTool/Libraries/XMCLib/inc\xmc_usic.h ****   __I  uint32_t  OUTDR;			/**< Receive FIFO debug output register*/
 542:D:/Users/Beheerder/Desktop/GPSBox/SensorMaritime-SensorBox/Sensorbox_firmware/GPSGyroAnalysisTool/GpsGyroAnalysisTool/GpsGyroAnalysisTool/Libraries/XMCLib/inc\xmc_usic.h ****   __I  uint32_t  RESERVED3[23];
 543:D:/Users/Beheerder/Desktop/GPSBox/SensorMaritime-SensorBox/Sensorbox_firmware/GPSGyroAnalysisTool/GpsGyroAnalysisTool/GpsGyroAnalysisTool/Libraries/XMCLib/inc\xmc_usic.h ****   __O  uint32_t  IN[32];		/**< Transmit FIFO input register*/
 544:D:/Users/Beheerder/Desktop/GPSBox/SensorMaritime-SensorBox/Sensorbox_firmware/GPSGyroAnalysisTool/GpsGyroAnalysisTool/GpsGyroAnalysisTool/Libraries/XMCLib/inc\xmc_usic.h **** } XMC_USIC_CH_t;
 545:D:/Users/Beheerder/Desktop/GPSBox/SensorMaritime-SensorBox/Sensorbox_firmware/GPSGyroAnalysisTool/GpsGyroAnalysisTool/GpsGyroAnalysisTool/Libraries/XMCLib/inc\xmc_usic.h **** 
 546:D:/Users/Beheerder/Desktop/GPSBox/SensorMaritime-SensorBox/Sensorbox_firmware/GPSGyroAnalysisTool/GpsGyroAnalysisTool/GpsGyroAnalysisTool/Libraries/XMCLib/inc\xmc_usic.h **** 
 547:D:/Users/Beheerder/Desktop/GPSBox/SensorMaritime-SensorBox/Sensorbox_firmware/GPSGyroAnalysisTool/GpsGyroAnalysisTool/GpsGyroAnalysisTool/Libraries/XMCLib/inc\xmc_usic.h **** /*Anonymous structure/union guard end*/
 548:D:/Users/Beheerder/Desktop/GPSBox/SensorMaritime-SensorBox/Sensorbox_firmware/GPSGyroAnalysisTool/GpsGyroAnalysisTool/GpsGyroAnalysisTool/Libraries/XMCLib/inc\xmc_usic.h **** #if defined(__CC_ARM)
 549:D:/Users/Beheerder/Desktop/GPSBox/SensorMaritime-SensorBox/Sensorbox_firmware/GPSGyroAnalysisTool/GpsGyroAnalysisTool/GpsGyroAnalysisTool/Libraries/XMCLib/inc\xmc_usic.h ****   #pragma pop
 550:D:/Users/Beheerder/Desktop/GPSBox/SensorMaritime-SensorBox/Sensorbox_firmware/GPSGyroAnalysisTool/GpsGyroAnalysisTool/GpsGyroAnalysisTool/Libraries/XMCLib/inc\xmc_usic.h **** #elif defined(__TASKING__)
 551:D:/Users/Beheerder/Desktop/GPSBox/SensorMaritime-SensorBox/Sensorbox_firmware/GPSGyroAnalysisTool/GpsGyroAnalysisTool/GpsGyroAnalysisTool/Libraries/XMCLib/inc\xmc_usic.h ****   #pragma warning restore
 552:D:/Users/Beheerder/Desktop/GPSBox/SensorMaritime-SensorBox/Sensorbox_firmware/GPSGyroAnalysisTool/GpsGyroAnalysisTool/GpsGyroAnalysisTool/Libraries/XMCLib/inc\xmc_usic.h **** #endif
 553:D:/Users/Beheerder/Desktop/GPSBox/SensorMaritime-SensorBox/Sensorbox_firmware/GPSGyroAnalysisTool/GpsGyroAnalysisTool/GpsGyroAnalysisTool/Libraries/XMCLib/inc\xmc_usic.h **** 
 554:D:/Users/Beheerder/Desktop/GPSBox/SensorMaritime-SensorBox/Sensorbox_firmware/GPSGyroAnalysisTool/GpsGyroAnalysisTool/GpsGyroAnalysisTool/Libraries/XMCLib/inc\xmc_usic.h **** /*******************************************************************************
 555:D:/Users/Beheerder/Desktop/GPSBox/SensorMaritime-SensorBox/Sensorbox_firmware/GPSGyroAnalysisTool/GpsGyroAnalysisTool/GpsGyroAnalysisTool/Libraries/XMCLib/inc\xmc_usic.h ****  * API PROTOTYPES
 556:D:/Users/Beheerder/Desktop/GPSBox/SensorMaritime-SensorBox/Sensorbox_firmware/GPSGyroAnalysisTool/GpsGyroAnalysisTool/GpsGyroAnalysisTool/Libraries/XMCLib/inc\xmc_usic.h ****  ******************************************************************************/
 557:D:/Users/Beheerder/Desktop/GPSBox/SensorMaritime-SensorBox/Sensorbox_firmware/GPSGyroAnalysisTool/GpsGyroAnalysisTool/GpsGyroAnalysisTool/Libraries/XMCLib/inc\xmc_usic.h **** 
 558:D:/Users/Beheerder/Desktop/GPSBox/SensorMaritime-SensorBox/Sensorbox_firmware/GPSGyroAnalysisTool/GpsGyroAnalysisTool/GpsGyroAnalysisTool/Libraries/XMCLib/inc\xmc_usic.h **** #ifdef __cplusplus
 559:D:/Users/Beheerder/Desktop/GPSBox/SensorMaritime-SensorBox/Sensorbox_firmware/GPSGyroAnalysisTool/GpsGyroAnalysisTool/GpsGyroAnalysisTool/Libraries/XMCLib/inc\xmc_usic.h **** extern "C" {
 560:D:/Users/Beheerder/Desktop/GPSBox/SensorMaritime-SensorBox/Sensorbox_firmware/GPSGyroAnalysisTool/GpsGyroAnalysisTool/GpsGyroAnalysisTool/Libraries/XMCLib/inc\xmc_usic.h **** #endif
 561:D:/Users/Beheerder/Desktop/GPSBox/SensorMaritime-SensorBox/Sensorbox_firmware/GPSGyroAnalysisTool/GpsGyroAnalysisTool/GpsGyroAnalysisTool/Libraries/XMCLib/inc\xmc_usic.h **** 
 562:D:/Users/Beheerder/Desktop/GPSBox/SensorMaritime-SensorBox/Sensorbox_firmware/GPSGyroAnalysisTool/GpsGyroAnalysisTool/GpsGyroAnalysisTool/Libraries/XMCLib/inc\xmc_usic.h **** __STATIC_INLINE bool XMC_USIC_IsModuleValid(const XMC_USIC_t *const module)
 563:D:/Users/Beheerder/Desktop/GPSBox/SensorMaritime-SensorBox/Sensorbox_firmware/GPSGyroAnalysisTool/GpsGyroAnalysisTool/GpsGyroAnalysisTool/Libraries/XMCLib/inc\xmc_usic.h **** {
 564:D:/Users/Beheerder/Desktop/GPSBox/SensorMaritime-SensorBox/Sensorbox_firmware/GPSGyroAnalysisTool/GpsGyroAnalysisTool/GpsGyroAnalysisTool/Libraries/XMCLib/inc\xmc_usic.h ****   bool tmp;
 565:D:/Users/Beheerder/Desktop/GPSBox/SensorMaritime-SensorBox/Sensorbox_firmware/GPSGyroAnalysisTool/GpsGyroAnalysisTool/GpsGyroAnalysisTool/Libraries/XMCLib/inc\xmc_usic.h **** 
 566:D:/Users/Beheerder/Desktop/GPSBox/SensorMaritime-SensorBox/Sensorbox_firmware/GPSGyroAnalysisTool/GpsGyroAnalysisTool/GpsGyroAnalysisTool/Libraries/XMCLib/inc\xmc_usic.h ****   tmp = (module == XMC_USIC0);
 567:D:/Users/Beheerder/Desktop/GPSBox/SensorMaritime-SensorBox/Sensorbox_firmware/GPSGyroAnalysisTool/GpsGyroAnalysisTool/GpsGyroAnalysisTool/Libraries/XMCLib/inc\xmc_usic.h **** #if defined(XMC_USIC1)  
 568:D:/Users/Beheerder/Desktop/GPSBox/SensorMaritime-SensorBox/Sensorbox_firmware/GPSGyroAnalysisTool/GpsGyroAnalysisTool/GpsGyroAnalysisTool/Libraries/XMCLib/inc\xmc_usic.h ****   tmp = tmp || (module == XMC_USIC1);
 569:D:/Users/Beheerder/Desktop/GPSBox/SensorMaritime-SensorBox/Sensorbox_firmware/GPSGyroAnalysisTool/GpsGyroAnalysisTool/GpsGyroAnalysisTool/Libraries/XMCLib/inc\xmc_usic.h **** #endif
 570:D:/Users/Beheerder/Desktop/GPSBox/SensorMaritime-SensorBox/Sensorbox_firmware/GPSGyroAnalysisTool/GpsGyroAnalysisTool/GpsGyroAnalysisTool/Libraries/XMCLib/inc\xmc_usic.h **** #if defined(XMC_USIC2)  
 571:D:/Users/Beheerder/Desktop/GPSBox/SensorMaritime-SensorBox/Sensorbox_firmware/GPSGyroAnalysisTool/GpsGyroAnalysisTool/GpsGyroAnalysisTool/Libraries/XMCLib/inc\xmc_usic.h ****   tmp = tmp || (module == XMC_USIC2);
 572:D:/Users/Beheerder/Desktop/GPSBox/SensorMaritime-SensorBox/Sensorbox_firmware/GPSGyroAnalysisTool/GpsGyroAnalysisTool/GpsGyroAnalysisTool/Libraries/XMCLib/inc\xmc_usic.h **** #endif
 573:D:/Users/Beheerder/Desktop/GPSBox/SensorMaritime-SensorBox/Sensorbox_firmware/GPSGyroAnalysisTool/GpsGyroAnalysisTool/GpsGyroAnalysisTool/Libraries/XMCLib/inc\xmc_usic.h **** 
 574:D:/Users/Beheerder/Desktop/GPSBox/SensorMaritime-SensorBox/Sensorbox_firmware/GPSGyroAnalysisTool/GpsGyroAnalysisTool/GpsGyroAnalysisTool/Libraries/XMCLib/inc\xmc_usic.h ****   return tmp;
 575:D:/Users/Beheerder/Desktop/GPSBox/SensorMaritime-SensorBox/Sensorbox_firmware/GPSGyroAnalysisTool/GpsGyroAnalysisTool/GpsGyroAnalysisTool/Libraries/XMCLib/inc\xmc_usic.h **** }
 576:D:/Users/Beheerder/Desktop/GPSBox/SensorMaritime-SensorBox/Sensorbox_firmware/GPSGyroAnalysisTool/GpsGyroAnalysisTool/GpsGyroAnalysisTool/Libraries/XMCLib/inc\xmc_usic.h **** 
 577:D:/Users/Beheerder/Desktop/GPSBox/SensorMaritime-SensorBox/Sensorbox_firmware/GPSGyroAnalysisTool/GpsGyroAnalysisTool/GpsGyroAnalysisTool/Libraries/XMCLib/inc\xmc_usic.h **** __STATIC_INLINE bool XMC_USIC_IsChannelValid(const XMC_USIC_CH_t *const channel)
 578:D:/Users/Beheerder/Desktop/GPSBox/SensorMaritime-SensorBox/Sensorbox_firmware/GPSGyroAnalysisTool/GpsGyroAnalysisTool/GpsGyroAnalysisTool/Libraries/XMCLib/inc\xmc_usic.h **** {
 579:D:/Users/Beheerder/Desktop/GPSBox/SensorMaritime-SensorBox/Sensorbox_firmware/GPSGyroAnalysisTool/GpsGyroAnalysisTool/GpsGyroAnalysisTool/Libraries/XMCLib/inc\xmc_usic.h ****   bool tmp;
 580:D:/Users/Beheerder/Desktop/GPSBox/SensorMaritime-SensorBox/Sensorbox_firmware/GPSGyroAnalysisTool/GpsGyroAnalysisTool/GpsGyroAnalysisTool/Libraries/XMCLib/inc\xmc_usic.h **** 
 581:D:/Users/Beheerder/Desktop/GPSBox/SensorMaritime-SensorBox/Sensorbox_firmware/GPSGyroAnalysisTool/GpsGyroAnalysisTool/GpsGyroAnalysisTool/Libraries/XMCLib/inc\xmc_usic.h ****   tmp = ((channel == XMC_USIC0_CH0) || (channel == XMC_USIC0_CH1));
 582:D:/Users/Beheerder/Desktop/GPSBox/SensorMaritime-SensorBox/Sensorbox_firmware/GPSGyroAnalysisTool/GpsGyroAnalysisTool/GpsGyroAnalysisTool/Libraries/XMCLib/inc\xmc_usic.h **** #if defined(XMC_USIC1)  
 583:D:/Users/Beheerder/Desktop/GPSBox/SensorMaritime-SensorBox/Sensorbox_firmware/GPSGyroAnalysisTool/GpsGyroAnalysisTool/GpsGyroAnalysisTool/Libraries/XMCLib/inc\xmc_usic.h ****   tmp = tmp || ((channel == XMC_USIC1_CH0) || (channel == XMC_USIC1_CH1));
 584:D:/Users/Beheerder/Desktop/GPSBox/SensorMaritime-SensorBox/Sensorbox_firmware/GPSGyroAnalysisTool/GpsGyroAnalysisTool/GpsGyroAnalysisTool/Libraries/XMCLib/inc\xmc_usic.h **** #endif
 585:D:/Users/Beheerder/Desktop/GPSBox/SensorMaritime-SensorBox/Sensorbox_firmware/GPSGyroAnalysisTool/GpsGyroAnalysisTool/GpsGyroAnalysisTool/Libraries/XMCLib/inc\xmc_usic.h **** #if defined(XMC_USIC2)  
 586:D:/Users/Beheerder/Desktop/GPSBox/SensorMaritime-SensorBox/Sensorbox_firmware/GPSGyroAnalysisTool/GpsGyroAnalysisTool/GpsGyroAnalysisTool/Libraries/XMCLib/inc\xmc_usic.h ****   tmp = tmp || ((channel == XMC_USIC2_CH0) || (channel == XMC_USIC2_CH1));
 587:D:/Users/Beheerder/Desktop/GPSBox/SensorMaritime-SensorBox/Sensorbox_firmware/GPSGyroAnalysisTool/GpsGyroAnalysisTool/GpsGyroAnalysisTool/Libraries/XMCLib/inc\xmc_usic.h **** #endif
 588:D:/Users/Beheerder/Desktop/GPSBox/SensorMaritime-SensorBox/Sensorbox_firmware/GPSGyroAnalysisTool/GpsGyroAnalysisTool/GpsGyroAnalysisTool/Libraries/XMCLib/inc\xmc_usic.h **** 
 589:D:/Users/Beheerder/Desktop/GPSBox/SensorMaritime-SensorBox/Sensorbox_firmware/GPSGyroAnalysisTool/GpsGyroAnalysisTool/GpsGyroAnalysisTool/Libraries/XMCLib/inc\xmc_usic.h ****   return tmp;
 590:D:/Users/Beheerder/Desktop/GPSBox/SensorMaritime-SensorBox/Sensorbox_firmware/GPSGyroAnalysisTool/GpsGyroAnalysisTool/GpsGyroAnalysisTool/Libraries/XMCLib/inc\xmc_usic.h **** }
 591:D:/Users/Beheerder/Desktop/GPSBox/SensorMaritime-SensorBox/Sensorbox_firmware/GPSGyroAnalysisTool/GpsGyroAnalysisTool/GpsGyroAnalysisTool/Libraries/XMCLib/inc\xmc_usic.h **** 
 592:D:/Users/Beheerder/Desktop/GPSBox/SensorMaritime-SensorBox/Sensorbox_firmware/GPSGyroAnalysisTool/GpsGyroAnalysisTool/GpsGyroAnalysisTool/Libraries/XMCLib/inc\xmc_usic.h **** /* Common APIs */
 593:D:/Users/Beheerder/Desktop/GPSBox/SensorMaritime-SensorBox/Sensorbox_firmware/GPSGyroAnalysisTool/GpsGyroAnalysisTool/GpsGyroAnalysisTool/Libraries/XMCLib/inc\xmc_usic.h **** 
 594:D:/Users/Beheerder/Desktop/GPSBox/SensorMaritime-SensorBox/Sensorbox_firmware/GPSGyroAnalysisTool/GpsGyroAnalysisTool/GpsGyroAnalysisTool/Libraries/XMCLib/inc\xmc_usic.h **** /**
 595:D:/Users/Beheerder/Desktop/GPSBox/SensorMaritime-SensorBox/Sensorbox_firmware/GPSGyroAnalysisTool/GpsGyroAnalysisTool/GpsGyroAnalysisTool/Libraries/XMCLib/inc\xmc_usic.h ****  * @param  usic Pointer to USIC module handler of type @ref XMC_USIC_t.\n
 596:D:/Users/Beheerder/Desktop/GPSBox/SensorMaritime-SensorBox/Sensorbox_firmware/GPSGyroAnalysisTool/GpsGyroAnalysisTool/GpsGyroAnalysisTool/Libraries/XMCLib/inc\xmc_usic.h ****  * 				\b Range: @ref XMC_USIC0 to @ref XMC_USIC2 based on device support.
 597:D:/Users/Beheerder/Desktop/GPSBox/SensorMaritime-SensorBox/Sensorbox_firmware/GPSGyroAnalysisTool/GpsGyroAnalysisTool/GpsGyroAnalysisTool/Libraries/XMCLib/inc\xmc_usic.h ****  * @return None
 598:D:/Users/Beheerder/Desktop/GPSBox/SensorMaritime-SensorBox/Sensorbox_firmware/GPSGyroAnalysisTool/GpsGyroAnalysisTool/GpsGyroAnalysisTool/Libraries/XMCLib/inc\xmc_usic.h ****  * 
 599:D:/Users/Beheerder/Desktop/GPSBox/SensorMaritime-SensorBox/Sensorbox_firmware/GPSGyroAnalysisTool/GpsGyroAnalysisTool/GpsGyroAnalysisTool/Libraries/XMCLib/inc\xmc_usic.h ****  * \par<b>Description</b><br>
 600:D:/Users/Beheerder/Desktop/GPSBox/SensorMaritime-SensorBox/Sensorbox_firmware/GPSGyroAnalysisTool/GpsGyroAnalysisTool/GpsGyroAnalysisTool/Libraries/XMCLib/inc\xmc_usic.h ****  * Enables the USIC module.\n\n
 601:D:/Users/Beheerder/Desktop/GPSBox/SensorMaritime-SensorBox/Sensorbox_firmware/GPSGyroAnalysisTool/GpsGyroAnalysisTool/GpsGyroAnalysisTool/Libraries/XMCLib/inc\xmc_usic.h ****  * Enables the clock for the USIC module by following the
 602:D:/Users/Beheerder/Desktop/GPSBox/SensorMaritime-SensorBox/Sensorbox_firmware/GPSGyroAnalysisTool/GpsGyroAnalysisTool/GpsGyroAnalysisTool/Libraries/XMCLib/inc\xmc_usic.h ****  * clock enabling sequence for the selected device.
 603:D:/Users/Beheerder/Desktop/GPSBox/SensorMaritime-SensorBox/Sensorbox_firmware/GPSGyroAnalysisTool/GpsGyroAnalysisTool/GpsGyroAnalysisTool/Libraries/XMCLib/inc\xmc_usic.h ****  *
 604:D:/Users/Beheerder/Desktop/GPSBox/SensorMaritime-SensorBox/Sensorbox_firmware/GPSGyroAnalysisTool/GpsGyroAnalysisTool/GpsGyroAnalysisTool/Libraries/XMCLib/inc\xmc_usic.h ****  * \par<b>Related APIs:</b><BR>
 605:D:/Users/Beheerder/Desktop/GPSBox/SensorMaritime-SensorBox/Sensorbox_firmware/GPSGyroAnalysisTool/GpsGyroAnalysisTool/GpsGyroAnalysisTool/Libraries/XMCLib/inc\xmc_usic.h ****  * XMC_USIC_CH_Enable(), XMC_USIC_Disable() \n\n\n
 606:D:/Users/Beheerder/Desktop/GPSBox/SensorMaritime-SensorBox/Sensorbox_firmware/GPSGyroAnalysisTool/GpsGyroAnalysisTool/GpsGyroAnalysisTool/Libraries/XMCLib/inc\xmc_usic.h ****  */
 607:D:/Users/Beheerder/Desktop/GPSBox/SensorMaritime-SensorBox/Sensorbox_firmware/GPSGyroAnalysisTool/GpsGyroAnalysisTool/GpsGyroAnalysisTool/Libraries/XMCLib/inc\xmc_usic.h **** void XMC_USIC_Enable(XMC_USIC_t *const usic);
 608:D:/Users/Beheerder/Desktop/GPSBox/SensorMaritime-SensorBox/Sensorbox_firmware/GPSGyroAnalysisTool/GpsGyroAnalysisTool/GpsGyroAnalysisTool/Libraries/XMCLib/inc\xmc_usic.h **** /**
 609:D:/Users/Beheerder/Desktop/GPSBox/SensorMaritime-SensorBox/Sensorbox_firmware/GPSGyroAnalysisTool/GpsGyroAnalysisTool/GpsGyroAnalysisTool/Libraries/XMCLib/inc\xmc_usic.h ****  * @param  usic Pointer to USIC module handler of type @ref XMC_USIC_t.\n
 610:D:/Users/Beheerder/Desktop/GPSBox/SensorMaritime-SensorBox/Sensorbox_firmware/GPSGyroAnalysisTool/GpsGyroAnalysisTool/GpsGyroAnalysisTool/Libraries/XMCLib/inc\xmc_usic.h ****  * 				\b Range: @ref XMC_USIC0 to @ref XMC_USIC2 based on device support.
 611:D:/Users/Beheerder/Desktop/GPSBox/SensorMaritime-SensorBox/Sensorbox_firmware/GPSGyroAnalysisTool/GpsGyroAnalysisTool/GpsGyroAnalysisTool/Libraries/XMCLib/inc\xmc_usic.h ****  * @return None
 612:D:/Users/Beheerder/Desktop/GPSBox/SensorMaritime-SensorBox/Sensorbox_firmware/GPSGyroAnalysisTool/GpsGyroAnalysisTool/GpsGyroAnalysisTool/Libraries/XMCLib/inc\xmc_usic.h ****  *
 613:D:/Users/Beheerder/Desktop/GPSBox/SensorMaritime-SensorBox/Sensorbox_firmware/GPSGyroAnalysisTool/GpsGyroAnalysisTool/GpsGyroAnalysisTool/Libraries/XMCLib/inc\xmc_usic.h ****  * \par<b>Description</b><br>
 614:D:/Users/Beheerder/Desktop/GPSBox/SensorMaritime-SensorBox/Sensorbox_firmware/GPSGyroAnalysisTool/GpsGyroAnalysisTool/GpsGyroAnalysisTool/Libraries/XMCLib/inc\xmc_usic.h ****  * Disables the USIC module.\n\n
 615:D:/Users/Beheerder/Desktop/GPSBox/SensorMaritime-SensorBox/Sensorbox_firmware/GPSGyroAnalysisTool/GpsGyroAnalysisTool/GpsGyroAnalysisTool/Libraries/XMCLib/inc\xmc_usic.h ****  * Disables the clock for the USIC module by following the clock
 616:D:/Users/Beheerder/Desktop/GPSBox/SensorMaritime-SensorBox/Sensorbox_firmware/GPSGyroAnalysisTool/GpsGyroAnalysisTool/GpsGyroAnalysisTool/Libraries/XMCLib/inc\xmc_usic.h ****  * disabling sequence for the selected device.
 617:D:/Users/Beheerder/Desktop/GPSBox/SensorMaritime-SensorBox/Sensorbox_firmware/GPSGyroAnalysisTool/GpsGyroAnalysisTool/GpsGyroAnalysisTool/Libraries/XMCLib/inc\xmc_usic.h ****  *
 618:D:/Users/Beheerder/Desktop/GPSBox/SensorMaritime-SensorBox/Sensorbox_firmware/GPSGyroAnalysisTool/GpsGyroAnalysisTool/GpsGyroAnalysisTool/Libraries/XMCLib/inc\xmc_usic.h ****  * \par<b>Related APIs:</b><BR>
 619:D:/Users/Beheerder/Desktop/GPSBox/SensorMaritime-SensorBox/Sensorbox_firmware/GPSGyroAnalysisTool/GpsGyroAnalysisTool/GpsGyroAnalysisTool/Libraries/XMCLib/inc\xmc_usic.h ****  * XMC_USIC_CH_Disable(), XMC_USIC_Enable() \n\n\n
 620:D:/Users/Beheerder/Desktop/GPSBox/SensorMaritime-SensorBox/Sensorbox_firmware/GPSGyroAnalysisTool/GpsGyroAnalysisTool/GpsGyroAnalysisTool/Libraries/XMCLib/inc\xmc_usic.h ****  */
 621:D:/Users/Beheerder/Desktop/GPSBox/SensorMaritime-SensorBox/Sensorbox_firmware/GPSGyroAnalysisTool/GpsGyroAnalysisTool/GpsGyroAnalysisTool/Libraries/XMCLib/inc\xmc_usic.h **** void XMC_USIC_Disable(XMC_USIC_t *const usic);
 622:D:/Users/Beheerder/Desktop/GPSBox/SensorMaritime-SensorBox/Sensorbox_firmware/GPSGyroAnalysisTool/GpsGyroAnalysisTool/GpsGyroAnalysisTool/Libraries/XMCLib/inc\xmc_usic.h **** /**
 623:D:/Users/Beheerder/Desktop/GPSBox/SensorMaritime-SensorBox/Sensorbox_firmware/GPSGyroAnalysisTool/GpsGyroAnalysisTool/GpsGyroAnalysisTool/Libraries/XMCLib/inc\xmc_usic.h ****  * @param  channel Pointer to USIC channel handler of type @ref XMC_USIC_CH_t \n
 624:D:/Users/Beheerder/Desktop/GPSBox/SensorMaritime-SensorBox/Sensorbox_firmware/GPSGyroAnalysisTool/GpsGyroAnalysisTool/GpsGyroAnalysisTool/Libraries/XMCLib/inc\xmc_usic.h ****  * 				   \b Range: @ref XMC_USIC0_CH0, @ref XMC_USIC0_CH1 to @ref XMC_USIC2_CH1 based on device su
 625:D:/Users/Beheerder/Desktop/GPSBox/SensorMaritime-SensorBox/Sensorbox_firmware/GPSGyroAnalysisTool/GpsGyroAnalysisTool/GpsGyroAnalysisTool/Libraries/XMCLib/inc\xmc_usic.h ****  * @return None
 626:D:/Users/Beheerder/Desktop/GPSBox/SensorMaritime-SensorBox/Sensorbox_firmware/GPSGyroAnalysisTool/GpsGyroAnalysisTool/GpsGyroAnalysisTool/Libraries/XMCLib/inc\xmc_usic.h ****  *
 627:D:/Users/Beheerder/Desktop/GPSBox/SensorMaritime-SensorBox/Sensorbox_firmware/GPSGyroAnalysisTool/GpsGyroAnalysisTool/GpsGyroAnalysisTool/Libraries/XMCLib/inc\xmc_usic.h ****  * \par<b>Description</b><br>
 628:D:/Users/Beheerder/Desktop/GPSBox/SensorMaritime-SensorBox/Sensorbox_firmware/GPSGyroAnalysisTool/GpsGyroAnalysisTool/GpsGyroAnalysisTool/Libraries/XMCLib/inc\xmc_usic.h ****  * Enables the USIC channel. \n\n
 629:D:/Users/Beheerder/Desktop/GPSBox/SensorMaritime-SensorBox/Sensorbox_firmware/GPSGyroAnalysisTool/GpsGyroAnalysisTool/GpsGyroAnalysisTool/Libraries/XMCLib/inc\xmc_usic.h ****  * USIC channel is enabled by setting the module enable bit in KSCFG register bitfield MODEN.
 630:D:/Users/Beheerder/Desktop/GPSBox/SensorMaritime-SensorBox/Sensorbox_firmware/GPSGyroAnalysisTool/GpsGyroAnalysisTool/GpsGyroAnalysisTool/Libraries/XMCLib/inc\xmc_usic.h ****  * On enabling, the channel is set to idle mode.
 631:D:/Users/Beheerder/Desktop/GPSBox/SensorMaritime-SensorBox/Sensorbox_firmware/GPSGyroAnalysisTool/GpsGyroAnalysisTool/GpsGyroAnalysisTool/Libraries/XMCLib/inc\xmc_usic.h ****  *
 632:D:/Users/Beheerder/Desktop/GPSBox/SensorMaritime-SensorBox/Sensorbox_firmware/GPSGyroAnalysisTool/GpsGyroAnalysisTool/GpsGyroAnalysisTool/Libraries/XMCLib/inc\xmc_usic.h ****  * \par<b>Related APIs:</b><BR>
 633:D:/Users/Beheerder/Desktop/GPSBox/SensorMaritime-SensorBox/Sensorbox_firmware/GPSGyroAnalysisTool/GpsGyroAnalysisTool/GpsGyroAnalysisTool/Libraries/XMCLib/inc\xmc_usic.h ****  * XMC_USIC_CH_Disable(), XMC_USIC_Enable() \n\n\n
 634:D:/Users/Beheerder/Desktop/GPSBox/SensorMaritime-SensorBox/Sensorbox_firmware/GPSGyroAnalysisTool/GpsGyroAnalysisTool/GpsGyroAnalysisTool/Libraries/XMCLib/inc\xmc_usic.h ****  */
 635:D:/Users/Beheerder/Desktop/GPSBox/SensorMaritime-SensorBox/Sensorbox_firmware/GPSGyroAnalysisTool/GpsGyroAnalysisTool/GpsGyroAnalysisTool/Libraries/XMCLib/inc\xmc_usic.h **** void XMC_USIC_CH_Enable(XMC_USIC_CH_t *const channel);
 636:D:/Users/Beheerder/Desktop/GPSBox/SensorMaritime-SensorBox/Sensorbox_firmware/GPSGyroAnalysisTool/GpsGyroAnalysisTool/GpsGyroAnalysisTool/Libraries/XMCLib/inc\xmc_usic.h **** /**
 637:D:/Users/Beheerder/Desktop/GPSBox/SensorMaritime-SensorBox/Sensorbox_firmware/GPSGyroAnalysisTool/GpsGyroAnalysisTool/GpsGyroAnalysisTool/Libraries/XMCLib/inc\xmc_usic.h ****  * @param  channel Pointer to USIC channel handler of type @ref XMC_USIC_CH_t \n
 638:D:/Users/Beheerder/Desktop/GPSBox/SensorMaritime-SensorBox/Sensorbox_firmware/GPSGyroAnalysisTool/GpsGyroAnalysisTool/GpsGyroAnalysisTool/Libraries/XMCLib/inc\xmc_usic.h ****  * 				   \b Range: @ref XMC_USIC0_CH0, @ref XMC_USIC0_CH1 to @ref XMC_USIC2_CH1 based on device su
 639:D:/Users/Beheerder/Desktop/GPSBox/SensorMaritime-SensorBox/Sensorbox_firmware/GPSGyroAnalysisTool/GpsGyroAnalysisTool/GpsGyroAnalysisTool/Libraries/XMCLib/inc\xmc_usic.h ****  * @return None
 640:D:/Users/Beheerder/Desktop/GPSBox/SensorMaritime-SensorBox/Sensorbox_firmware/GPSGyroAnalysisTool/GpsGyroAnalysisTool/GpsGyroAnalysisTool/Libraries/XMCLib/inc\xmc_usic.h ****  *
 641:D:/Users/Beheerder/Desktop/GPSBox/SensorMaritime-SensorBox/Sensorbox_firmware/GPSGyroAnalysisTool/GpsGyroAnalysisTool/GpsGyroAnalysisTool/Libraries/XMCLib/inc\xmc_usic.h ****  * \par<b>Description</b><br>
 642:D:/Users/Beheerder/Desktop/GPSBox/SensorMaritime-SensorBox/Sensorbox_firmware/GPSGyroAnalysisTool/GpsGyroAnalysisTool/GpsGyroAnalysisTool/Libraries/XMCLib/inc\xmc_usic.h ****  * Disables the USIC channel.\n\n
 643:D:/Users/Beheerder/Desktop/GPSBox/SensorMaritime-SensorBox/Sensorbox_firmware/GPSGyroAnalysisTool/GpsGyroAnalysisTool/GpsGyroAnalysisTool/Libraries/XMCLib/inc\xmc_usic.h ****  * USIC channel is disabled by setting the module enable bit(MDEN) to 0 in the register KSCFG.
 644:D:/Users/Beheerder/Desktop/GPSBox/SensorMaritime-SensorBox/Sensorbox_firmware/GPSGyroAnalysisTool/GpsGyroAnalysisTool/GpsGyroAnalysisTool/Libraries/XMCLib/inc\xmc_usic.h ****  *
 645:D:/Users/Beheerder/Desktop/GPSBox/SensorMaritime-SensorBox/Sensorbox_firmware/GPSGyroAnalysisTool/GpsGyroAnalysisTool/GpsGyroAnalysisTool/Libraries/XMCLib/inc\xmc_usic.h ****  * \par<b>Related APIs:</b><BR>
 646:D:/Users/Beheerder/Desktop/GPSBox/SensorMaritime-SensorBox/Sensorbox_firmware/GPSGyroAnalysisTool/GpsGyroAnalysisTool/GpsGyroAnalysisTool/Libraries/XMCLib/inc\xmc_usic.h ****  * XMC_USIC_CH_Enable(), XMC_USIC_Disable() \n\n\n
 647:D:/Users/Beheerder/Desktop/GPSBox/SensorMaritime-SensorBox/Sensorbox_firmware/GPSGyroAnalysisTool/GpsGyroAnalysisTool/GpsGyroAnalysisTool/Libraries/XMCLib/inc\xmc_usic.h ****  */
 648:D:/Users/Beheerder/Desktop/GPSBox/SensorMaritime-SensorBox/Sensorbox_firmware/GPSGyroAnalysisTool/GpsGyroAnalysisTool/GpsGyroAnalysisTool/Libraries/XMCLib/inc\xmc_usic.h **** void XMC_USIC_CH_Disable(XMC_USIC_CH_t *const channel);
 649:D:/Users/Beheerder/Desktop/GPSBox/SensorMaritime-SensorBox/Sensorbox_firmware/GPSGyroAnalysisTool/GpsGyroAnalysisTool/GpsGyroAnalysisTool/Libraries/XMCLib/inc\xmc_usic.h **** 
 650:D:/Users/Beheerder/Desktop/GPSBox/SensorMaritime-SensorBox/Sensorbox_firmware/GPSGyroAnalysisTool/GpsGyroAnalysisTool/GpsGyroAnalysisTool/Libraries/XMCLib/inc\xmc_usic.h **** /**
 651:D:/Users/Beheerder/Desktop/GPSBox/SensorMaritime-SensorBox/Sensorbox_firmware/GPSGyroAnalysisTool/GpsGyroAnalysisTool/GpsGyroAnalysisTool/Libraries/XMCLib/inc\xmc_usic.h ****  * @param  channel Pointer to USIC channel handler of type @ref XMC_USIC_CH_t \n
 652:D:/Users/Beheerder/Desktop/GPSBox/SensorMaritime-SensorBox/Sensorbox_firmware/GPSGyroAnalysisTool/GpsGyroAnalysisTool/GpsGyroAnalysisTool/Libraries/XMCLib/inc\xmc_usic.h ****  * 				   \b Range: @ref XMC_USIC0_CH0, @ref XMC_USIC0_CH1 to @ref XMC_USIC2_CH1 based on device su
 653:D:/Users/Beheerder/Desktop/GPSBox/SensorMaritime-SensorBox/Sensorbox_firmware/GPSGyroAnalysisTool/GpsGyroAnalysisTool/GpsGyroAnalysisTool/Libraries/XMCLib/inc\xmc_usic.h ****  * @param  rate Desired baudrate. \b Range: minimum value = 100, maximum value depends on the perip
 654:D:/Users/Beheerder/Desktop/GPSBox/SensorMaritime-SensorBox/Sensorbox_firmware/GPSGyroAnalysisTool/GpsGyroAnalysisTool/GpsGyroAnalysisTool/Libraries/XMCLib/inc\xmc_usic.h ****  * 				and \a oversampling. Maximum baudrate can be derived using the formula: (fperiph * 1023)/(10
 655:D:/Users/Beheerder/Desktop/GPSBox/SensorMaritime-SensorBox/Sensorbox_firmware/GPSGyroAnalysisTool/GpsGyroAnalysisTool/GpsGyroAnalysisTool/Libraries/XMCLib/inc\xmc_usic.h ****  * @param  oversampling Required oversampling. The value indicates the number of time quanta for on
 656:D:/Users/Beheerder/Desktop/GPSBox/SensorMaritime-SensorBox/Sensorbox_firmware/GPSGyroAnalysisTool/GpsGyroAnalysisTool/GpsGyroAnalysisTool/Libraries/XMCLib/inc\xmc_usic.h ****  * 						This can be related to the number of samples for each logic state of the data signal. \n
 657:D:/Users/Beheerder/Desktop/GPSBox/SensorMaritime-SensorBox/Sensorbox_firmware/GPSGyroAnalysisTool/GpsGyroAnalysisTool/GpsGyroAnalysisTool/Libraries/XMCLib/inc\xmc_usic.h ****  * 						\b Range: 1 to 32. Value should be chosen based on the protocol used.
 658:D:/Users/Beheerder/Desktop/GPSBox/SensorMaritime-SensorBox/Sensorbox_firmware/GPSGyroAnalysisTool/GpsGyroAnalysisTool/GpsGyroAnalysisTool/Libraries/XMCLib/inc\xmc_usic.h ****  * @return Status indicating the baudrate configuration.\n
 659:D:/Users/Beheerder/Desktop/GPSBox/SensorMaritime-SensorBox/Sensorbox_firmware/GPSGyroAnalysisTool/GpsGyroAnalysisTool/GpsGyroAnalysisTool/Libraries/XMCLib/inc\xmc_usic.h ****  * 			\b Range: @ref XMC_USIC_CH_STATUS_OK if baudrate is successfully configured,
 660:D:/Users/Beheerder/Desktop/GPSBox/SensorMaritime-SensorBox/Sensorbox_firmware/GPSGyroAnalysisTool/GpsGyroAnalysisTool/GpsGyroAnalysisTool/Libraries/XMCLib/inc\xmc_usic.h ****  * 					  @ref XMC_USIC_CH_STATUS_ERROR if desired baudrate or oversampling is invalid.
 661:D:/Users/Beheerder/Desktop/GPSBox/SensorMaritime-SensorBox/Sensorbox_firmware/GPSGyroAnalysisTool/GpsGyroAnalysisTool/GpsGyroAnalysisTool/Libraries/XMCLib/inc\xmc_usic.h ****  *
 662:D:/Users/Beheerder/Desktop/GPSBox/SensorMaritime-SensorBox/Sensorbox_firmware/GPSGyroAnalysisTool/GpsGyroAnalysisTool/GpsGyroAnalysisTool/Libraries/XMCLib/inc\xmc_usic.h ****  * \par<b>Description</b><br>
 663:D:/Users/Beheerder/Desktop/GPSBox/SensorMaritime-SensorBox/Sensorbox_firmware/GPSGyroAnalysisTool/GpsGyroAnalysisTool/GpsGyroAnalysisTool/Libraries/XMCLib/inc\xmc_usic.h ****  * Configures the baudrate of the USIC channel. \n\n
 664:D:/Users/Beheerder/Desktop/GPSBox/SensorMaritime-SensorBox/Sensorbox_firmware/GPSGyroAnalysisTool/GpsGyroAnalysisTool/GpsGyroAnalysisTool/Libraries/XMCLib/inc\xmc_usic.h ****  * Baudrate is configured by considering the peripheral frequency and the desired baudrate.
 665:D:/Users/Beheerder/Desktop/GPSBox/SensorMaritime-SensorBox/Sensorbox_firmware/GPSGyroAnalysisTool/GpsGyroAnalysisTool/GpsGyroAnalysisTool/Libraries/XMCLib/inc\xmc_usic.h ****  * Optimum values of FDR->STEP and BRG->PDIV are calulated and used for generating the desired
 666:D:/Users/Beheerder/Desktop/GPSBox/SensorMaritime-SensorBox/Sensorbox_firmware/GPSGyroAnalysisTool/GpsGyroAnalysisTool/GpsGyroAnalysisTool/Libraries/XMCLib/inc\xmc_usic.h ****  * baudrate.
 667:D:/Users/Beheerder/Desktop/GPSBox/SensorMaritime-SensorBox/Sensorbox_firmware/GPSGyroAnalysisTool/GpsGyroAnalysisTool/GpsGyroAnalysisTool/Libraries/XMCLib/inc\xmc_usic.h ****  *
 668:D:/Users/Beheerder/Desktop/GPSBox/SensorMaritime-SensorBox/Sensorbox_firmware/GPSGyroAnalysisTool/GpsGyroAnalysisTool/GpsGyroAnalysisTool/Libraries/XMCLib/inc\xmc_usic.h ****  * \par<b>Related APIs:</b><BR>
 669:D:/Users/Beheerder/Desktop/GPSBox/SensorMaritime-SensorBox/Sensorbox_firmware/GPSGyroAnalysisTool/GpsGyroAnalysisTool/GpsGyroAnalysisTool/Libraries/XMCLib/inc\xmc_usic.h ****  * XMC_USIC_CH_SetStartTransmisionMode(), XMC_USIC_CH_SetInputSource() \n\n\n
 670:D:/Users/Beheerder/Desktop/GPSBox/SensorMaritime-SensorBox/Sensorbox_firmware/GPSGyroAnalysisTool/GpsGyroAnalysisTool/GpsGyroAnalysisTool/Libraries/XMCLib/inc\xmc_usic.h ****  */
 671:D:/Users/Beheerder/Desktop/GPSBox/SensorMaritime-SensorBox/Sensorbox_firmware/GPSGyroAnalysisTool/GpsGyroAnalysisTool/GpsGyroAnalysisTool/Libraries/XMCLib/inc\xmc_usic.h **** XMC_USIC_CH_STATUS_t XMC_USIC_CH_SetBaudrate(XMC_USIC_CH_t *const channel, uint32_t rate, uint32_t 
 672:D:/Users/Beheerder/Desktop/GPSBox/SensorMaritime-SensorBox/Sensorbox_firmware/GPSGyroAnalysisTool/GpsGyroAnalysisTool/GpsGyroAnalysisTool/Libraries/XMCLib/inc\xmc_usic.h **** 
 673:D:/Users/Beheerder/Desktop/GPSBox/SensorMaritime-SensorBox/Sensorbox_firmware/GPSGyroAnalysisTool/GpsGyroAnalysisTool/GpsGyroAnalysisTool/Libraries/XMCLib/inc\xmc_usic.h **** /**
 674:D:/Users/Beheerder/Desktop/GPSBox/SensorMaritime-SensorBox/Sensorbox_firmware/GPSGyroAnalysisTool/GpsGyroAnalysisTool/GpsGyroAnalysisTool/Libraries/XMCLib/inc\xmc_usic.h ****  * @param  channel Pointer to USIC channel handler of type @ref XMC_USIC_CH_t \n
 675:D:/Users/Beheerder/Desktop/GPSBox/SensorMaritime-SensorBox/Sensorbox_firmware/GPSGyroAnalysisTool/GpsGyroAnalysisTool/GpsGyroAnalysisTool/Libraries/XMCLib/inc\xmc_usic.h ****  *           \b Range: @ref XMC_USIC0_CH0, @ref XMC_USIC0_CH1 to @ref XMC_USIC2_CH1 based on device
 676:D:/Users/Beheerder/Desktop/GPSBox/SensorMaritime-SensorBox/Sensorbox_firmware/GPSGyroAnalysisTool/GpsGyroAnalysisTool/GpsGyroAnalysisTool/Libraries/XMCLib/inc\xmc_usic.h ****  * @param  rate Desired baudrate. Only integer dividers of peripheral clock are achievable
 677:D:/Users/Beheerder/Desktop/GPSBox/SensorMaritime-SensorBox/Sensorbox_firmware/GPSGyroAnalysisTool/GpsGyroAnalysisTool/GpsGyroAnalysisTool/Libraries/XMCLib/inc\xmc_usic.h ****  * @param  oversampling Required oversampling. The value indicates the number of time quanta for on
 678:D:/Users/Beheerder/Desktop/GPSBox/SensorMaritime-SensorBox/Sensorbox_firmware/GPSGyroAnalysisTool/GpsGyroAnalysisTool/GpsGyroAnalysisTool/Libraries/XMCLib/inc\xmc_usic.h ****  *            This can be related to the number of samples for each logic state of the data signal.
 679:D:/Users/Beheerder/Desktop/GPSBox/SensorMaritime-SensorBox/Sensorbox_firmware/GPSGyroAnalysisTool/GpsGyroAnalysisTool/GpsGyroAnalysisTool/Libraries/XMCLib/inc\xmc_usic.h ****  *            \b Range: 1 to 32. Value should be chosen based on the protocol used.
 680:D:/Users/Beheerder/Desktop/GPSBox/SensorMaritime-SensorBox/Sensorbox_firmware/GPSGyroAnalysisTool/GpsGyroAnalysisTool/GpsGyroAnalysisTool/Libraries/XMCLib/inc\xmc_usic.h ****  * @return Status indicating the baudrate configuration.\n
 681:D:/Users/Beheerder/Desktop/GPSBox/SensorMaritime-SensorBox/Sensorbox_firmware/GPSGyroAnalysisTool/GpsGyroAnalysisTool/GpsGyroAnalysisTool/Libraries/XMCLib/inc\xmc_usic.h ****  *      \b Range: @ref XMC_USIC_CH_STATUS_OK if baudrate is successfully configured,
 682:D:/Users/Beheerder/Desktop/GPSBox/SensorMaritime-SensorBox/Sensorbox_firmware/GPSGyroAnalysisTool/GpsGyroAnalysisTool/GpsGyroAnalysisTool/Libraries/XMCLib/inc\xmc_usic.h ****  *            @ref XMC_USIC_CH_STATUS_ERROR if desired baudrate or oversampling is invalid.
 683:D:/Users/Beheerder/Desktop/GPSBox/SensorMaritime-SensorBox/Sensorbox_firmware/GPSGyroAnalysisTool/GpsGyroAnalysisTool/GpsGyroAnalysisTool/Libraries/XMCLib/inc\xmc_usic.h ****  *
 684:D:/Users/Beheerder/Desktop/GPSBox/SensorMaritime-SensorBox/Sensorbox_firmware/GPSGyroAnalysisTool/GpsGyroAnalysisTool/GpsGyroAnalysisTool/Libraries/XMCLib/inc\xmc_usic.h ****  * \par<b>Description</b><br>
 685:D:/Users/Beheerder/Desktop/GPSBox/SensorMaritime-SensorBox/Sensorbox_firmware/GPSGyroAnalysisTool/GpsGyroAnalysisTool/GpsGyroAnalysisTool/Libraries/XMCLib/inc\xmc_usic.h ****  * Configures the baudrate of the USIC channel using the integer divider which restrics the achieva
 686:D:/Users/Beheerder/Desktop/GPSBox/SensorMaritime-SensorBox/Sensorbox_firmware/GPSGyroAnalysisTool/GpsGyroAnalysisTool/GpsGyroAnalysisTool/Libraries/XMCLib/inc\xmc_usic.h ****  * Baudrate is configured by considering the peripheral frequency and the desired baudrate.
 687:D:/Users/Beheerder/Desktop/GPSBox/SensorMaritime-SensorBox/Sensorbox_firmware/GPSGyroAnalysisTool/GpsGyroAnalysisTool/GpsGyroAnalysisTool/Libraries/XMCLib/inc\xmc_usic.h ****  * Optimum values of FDR->STEP and BRG->PDIV are calulated and used for generating the desired
 688:D:/Users/Beheerder/Desktop/GPSBox/SensorMaritime-SensorBox/Sensorbox_firmware/GPSGyroAnalysisTool/GpsGyroAnalysisTool/GpsGyroAnalysisTool/Libraries/XMCLib/inc\xmc_usic.h ****  * baudrate.
 689:D:/Users/Beheerder/Desktop/GPSBox/SensorMaritime-SensorBox/Sensorbox_firmware/GPSGyroAnalysisTool/GpsGyroAnalysisTool/GpsGyroAnalysisTool/Libraries/XMCLib/inc\xmc_usic.h ****  *
 690:D:/Users/Beheerder/Desktop/GPSBox/SensorMaritime-SensorBox/Sensorbox_firmware/GPSGyroAnalysisTool/GpsGyroAnalysisTool/GpsGyroAnalysisTool/Libraries/XMCLib/inc\xmc_usic.h ****  * \par<b>Related APIs:</b><BR>
 691:D:/Users/Beheerder/Desktop/GPSBox/SensorMaritime-SensorBox/Sensorbox_firmware/GPSGyroAnalysisTool/GpsGyroAnalysisTool/GpsGyroAnalysisTool/Libraries/XMCLib/inc\xmc_usic.h ****  * XMC_USIC_CH_SetStartTransmisionMode(), XMC_USIC_CH_SetInputSource() \n\n\n
 692:D:/Users/Beheerder/Desktop/GPSBox/SensorMaritime-SensorBox/Sensorbox_firmware/GPSGyroAnalysisTool/GpsGyroAnalysisTool/GpsGyroAnalysisTool/Libraries/XMCLib/inc\xmc_usic.h ****  */
 693:D:/Users/Beheerder/Desktop/GPSBox/SensorMaritime-SensorBox/Sensorbox_firmware/GPSGyroAnalysisTool/GpsGyroAnalysisTool/GpsGyroAnalysisTool/Libraries/XMCLib/inc\xmc_usic.h **** XMC_USIC_CH_STATUS_t XMC_USIC_CH_SetBaudrateEx(XMC_USIC_CH_t *const channel, int32_t rate, int32_t 
 694:D:/Users/Beheerder/Desktop/GPSBox/SensorMaritime-SensorBox/Sensorbox_firmware/GPSGyroAnalysisTool/GpsGyroAnalysisTool/GpsGyroAnalysisTool/Libraries/XMCLib/inc\xmc_usic.h **** 
 695:D:/Users/Beheerder/Desktop/GPSBox/SensorMaritime-SensorBox/Sensorbox_firmware/GPSGyroAnalysisTool/GpsGyroAnalysisTool/GpsGyroAnalysisTool/Libraries/XMCLib/inc\xmc_usic.h **** 
 696:D:/Users/Beheerder/Desktop/GPSBox/SensorMaritime-SensorBox/Sensorbox_firmware/GPSGyroAnalysisTool/GpsGyroAnalysisTool/GpsGyroAnalysisTool/Libraries/XMCLib/inc\xmc_usic.h **** /**
 697:D:/Users/Beheerder/Desktop/GPSBox/SensorMaritime-SensorBox/Sensorbox_firmware/GPSGyroAnalysisTool/GpsGyroAnalysisTool/GpsGyroAnalysisTool/Libraries/XMCLib/inc\xmc_usic.h ****  * @param  channel Pointer to USIC channel handler of type @ref XMC_USIC_CH_t \n
 698:D:/Users/Beheerder/Desktop/GPSBox/SensorMaritime-SensorBox/Sensorbox_firmware/GPSGyroAnalysisTool/GpsGyroAnalysisTool/GpsGyroAnalysisTool/Libraries/XMCLib/inc\xmc_usic.h ****  *           \b Range: @ref XMC_USIC0_CH0, @ref XMC_USIC0_CH1 to @ref XMC_USIC2_CH1 based on device
 699:D:/Users/Beheerder/Desktop/GPSBox/SensorMaritime-SensorBox/Sensorbox_firmware/GPSGyroAnalysisTool/GpsGyroAnalysisTool/GpsGyroAnalysisTool/Libraries/XMCLib/inc\xmc_usic.h ****  * @return baudrate currently used by USIC channel for .\n
 700:D:/Users/Beheerder/Desktop/GPSBox/SensorMaritime-SensorBox/Sensorbox_firmware/GPSGyroAnalysisTool/GpsGyroAnalysisTool/GpsGyroAnalysisTool/Libraries/XMCLib/inc\xmc_usic.h ****  *
 701:D:/Users/Beheerder/Desktop/GPSBox/SensorMaritime-SensorBox/Sensorbox_firmware/GPSGyroAnalysisTool/GpsGyroAnalysisTool/GpsGyroAnalysisTool/Libraries/XMCLib/inc\xmc_usic.h ****  * \par<b>Description</b><br>
 702:D:/Users/Beheerder/Desktop/GPSBox/SensorMaritime-SensorBox/Sensorbox_firmware/GPSGyroAnalysisTool/GpsGyroAnalysisTool/GpsGyroAnalysisTool/Libraries/XMCLib/inc\xmc_usic.h ****  * Calculates the current used baudrate (fCTQIN) of a USIC channel. \n\n
 703:D:/Users/Beheerder/Desktop/GPSBox/SensorMaritime-SensorBox/Sensorbox_firmware/GPSGyroAnalysisTool/GpsGyroAnalysisTool/GpsGyroAnalysisTool/Libraries/XMCLib/inc\xmc_usic.h ****  * @image html ../images/usic_brg.png	 
 704:D:/Users/Beheerder/Desktop/GPSBox/SensorMaritime-SensorBox/Sensorbox_firmware/GPSGyroAnalysisTool/GpsGyroAnalysisTool/GpsGyroAnalysisTool/Libraries/XMCLib/inc\xmc_usic.h ****  * @image latex ../images/usic_brg.png	 
 705:D:/Users/Beheerder/Desktop/GPSBox/SensorMaritime-SensorBox/Sensorbox_firmware/GPSGyroAnalysisTool/GpsGyroAnalysisTool/GpsGyroAnalysisTool/Libraries/XMCLib/inc\xmc_usic.h ****  *
 706:D:/Users/Beheerder/Desktop/GPSBox/SensorMaritime-SensorBox/Sensorbox_firmware/GPSGyroAnalysisTool/GpsGyroAnalysisTool/GpsGyroAnalysisTool/Libraries/XMCLib/inc\xmc_usic.h ****  * \par<b>Related APIs:</b><BR>
 707:D:/Users/Beheerder/Desktop/GPSBox/SensorMaritime-SensorBox/Sensorbox_firmware/GPSGyroAnalysisTool/GpsGyroAnalysisTool/GpsGyroAnalysisTool/Libraries/XMCLib/inc\xmc_usic.h ****  * XMC_USIC_CH_SetBaudrateMode(), XMC_USIC_CH_SetBaudrate(), XMC_USIC_CH_SetBaudrateEx() \n\n\n
 708:D:/Users/Beheerder/Desktop/GPSBox/SensorMaritime-SensorBox/Sensorbox_firmware/GPSGyroAnalysisTool/GpsGyroAnalysisTool/GpsGyroAnalysisTool/Libraries/XMCLib/inc\xmc_usic.h ****  */
 709:D:/Users/Beheerder/Desktop/GPSBox/SensorMaritime-SensorBox/Sensorbox_firmware/GPSGyroAnalysisTool/GpsGyroAnalysisTool/GpsGyroAnalysisTool/Libraries/XMCLib/inc\xmc_usic.h **** uint32_t XMC_USIC_CH_GetBaudrate(XMC_USIC_CH_t *const channel);
 710:D:/Users/Beheerder/Desktop/GPSBox/SensorMaritime-SensorBox/Sensorbox_firmware/GPSGyroAnalysisTool/GpsGyroAnalysisTool/GpsGyroAnalysisTool/Libraries/XMCLib/inc\xmc_usic.h **** 
 711:D:/Users/Beheerder/Desktop/GPSBox/SensorMaritime-SensorBox/Sensorbox_firmware/GPSGyroAnalysisTool/GpsGyroAnalysisTool/GpsGyroAnalysisTool/Libraries/XMCLib/inc\xmc_usic.h **** /**
 712:D:/Users/Beheerder/Desktop/GPSBox/SensorMaritime-SensorBox/Sensorbox_firmware/GPSGyroAnalysisTool/GpsGyroAnalysisTool/GpsGyroAnalysisTool/Libraries/XMCLib/inc\xmc_usic.h ****  * @param  channel Pointer to USIC channel handler of type @ref XMC_USIC_CH_t \n
 713:D:/Users/Beheerder/Desktop/GPSBox/SensorMaritime-SensorBox/Sensorbox_firmware/GPSGyroAnalysisTool/GpsGyroAnalysisTool/GpsGyroAnalysisTool/Libraries/XMCLib/inc\xmc_usic.h ****  *           \b Range: @ref XMC_USIC0_CH0, @ref XMC_USIC0_CH1 to @ref XMC_USIC2_CH1 based on device
 714:D:/Users/Beheerder/Desktop/GPSBox/SensorMaritime-SensorBox/Sensorbox_firmware/GPSGyroAnalysisTool/GpsGyroAnalysisTool/GpsGyroAnalysisTool/Libraries/XMCLib/inc\xmc_usic.h ****  * @return baudrate currently used by USIC channel.\n
 715:D:/Users/Beheerder/Desktop/GPSBox/SensorMaritime-SensorBox/Sensorbox_firmware/GPSGyroAnalysisTool/GpsGyroAnalysisTool/GpsGyroAnalysisTool/Libraries/XMCLib/inc\xmc_usic.h ****  *
 716:D:/Users/Beheerder/Desktop/GPSBox/SensorMaritime-SensorBox/Sensorbox_firmware/GPSGyroAnalysisTool/GpsGyroAnalysisTool/GpsGyroAnalysisTool/Libraries/XMCLib/inc\xmc_usic.h ****  * \par<b>Description</b><br>
 717:D:/Users/Beheerder/Desktop/GPSBox/SensorMaritime-SensorBox/Sensorbox_firmware/GPSGyroAnalysisTool/GpsGyroAnalysisTool/GpsGyroAnalysisTool/Libraries/XMCLib/inc\xmc_usic.h ****  * Calculates the current used SCLK frequency of a USIC channel. \n\n
 718:D:/Users/Beheerder/Desktop/GPSBox/SensorMaritime-SensorBox/Sensorbox_firmware/GPSGyroAnalysisTool/GpsGyroAnalysisTool/GpsGyroAnalysisTool/Libraries/XMCLib/inc\xmc_usic.h ****  * @image html ../images/usic_brg.png	 
 719:D:/Users/Beheerder/Desktop/GPSBox/SensorMaritime-SensorBox/Sensorbox_firmware/GPSGyroAnalysisTool/GpsGyroAnalysisTool/GpsGyroAnalysisTool/Libraries/XMCLib/inc\xmc_usic.h ****  * @image latex ../images/usic_brg.png	 
 720:D:/Users/Beheerder/Desktop/GPSBox/SensorMaritime-SensorBox/Sensorbox_firmware/GPSGyroAnalysisTool/GpsGyroAnalysisTool/GpsGyroAnalysisTool/Libraries/XMCLib/inc\xmc_usic.h ****  *
 721:D:/Users/Beheerder/Desktop/GPSBox/SensorMaritime-SensorBox/Sensorbox_firmware/GPSGyroAnalysisTool/GpsGyroAnalysisTool/GpsGyroAnalysisTool/Libraries/XMCLib/inc\xmc_usic.h ****  * \par<b>Related APIs:</b><BR>
 722:D:/Users/Beheerder/Desktop/GPSBox/SensorMaritime-SensorBox/Sensorbox_firmware/GPSGyroAnalysisTool/GpsGyroAnalysisTool/GpsGyroAnalysisTool/Libraries/XMCLib/inc\xmc_usic.h ****  * XMC_USIC_CH_SetBaudrateMode(), XMC_USIC_CH_SetBaudrate(), XMC_USIC_CH_SetBaudrateEx() \n\n\n
 723:D:/Users/Beheerder/Desktop/GPSBox/SensorMaritime-SensorBox/Sensorbox_firmware/GPSGyroAnalysisTool/GpsGyroAnalysisTool/GpsGyroAnalysisTool/Libraries/XMCLib/inc\xmc_usic.h ****  */
 724:D:/Users/Beheerder/Desktop/GPSBox/SensorMaritime-SensorBox/Sensorbox_firmware/GPSGyroAnalysisTool/GpsGyroAnalysisTool/GpsGyroAnalysisTool/Libraries/XMCLib/inc\xmc_usic.h **** uint32_t XMC_USIC_CH_GetSCLKFrequency(XMC_USIC_CH_t *const channel);
 725:D:/Users/Beheerder/Desktop/GPSBox/SensorMaritime-SensorBox/Sensorbox_firmware/GPSGyroAnalysisTool/GpsGyroAnalysisTool/GpsGyroAnalysisTool/Libraries/XMCLib/inc\xmc_usic.h **** 
 726:D:/Users/Beheerder/Desktop/GPSBox/SensorMaritime-SensorBox/Sensorbox_firmware/GPSGyroAnalysisTool/GpsGyroAnalysisTool/GpsGyroAnalysisTool/Libraries/XMCLib/inc\xmc_usic.h **** /**
 727:D:/Users/Beheerder/Desktop/GPSBox/SensorMaritime-SensorBox/Sensorbox_firmware/GPSGyroAnalysisTool/GpsGyroAnalysisTool/GpsGyroAnalysisTool/Libraries/XMCLib/inc\xmc_usic.h ****  * @param  channel Pointer to USIC channel handler of type @ref XMC_USIC_CH_t \n
 728:D:/Users/Beheerder/Desktop/GPSBox/SensorMaritime-SensorBox/Sensorbox_firmware/GPSGyroAnalysisTool/GpsGyroAnalysisTool/GpsGyroAnalysisTool/Libraries/XMCLib/inc\xmc_usic.h ****  *           \b Range: @ref XMC_USIC0_CH0, @ref XMC_USIC0_CH1 to @ref XMC_USIC2_CH1 based on device
 729:D:/Users/Beheerder/Desktop/GPSBox/SensorMaritime-SensorBox/Sensorbox_firmware/GPSGyroAnalysisTool/GpsGyroAnalysisTool/GpsGyroAnalysisTool/Libraries/XMCLib/inc\xmc_usic.h ****  * @return baudrate currently used by USIC channel.\n
 730:D:/Users/Beheerder/Desktop/GPSBox/SensorMaritime-SensorBox/Sensorbox_firmware/GPSGyroAnalysisTool/GpsGyroAnalysisTool/GpsGyroAnalysisTool/Libraries/XMCLib/inc\xmc_usic.h ****  *
 731:D:/Users/Beheerder/Desktop/GPSBox/SensorMaritime-SensorBox/Sensorbox_firmware/GPSGyroAnalysisTool/GpsGyroAnalysisTool/GpsGyroAnalysisTool/Libraries/XMCLib/inc\xmc_usic.h ****  * \par<b>Description</b><br>
 732:D:/Users/Beheerder/Desktop/GPSBox/SensorMaritime-SensorBox/Sensorbox_firmware/GPSGyroAnalysisTool/GpsGyroAnalysisTool/GpsGyroAnalysisTool/Libraries/XMCLib/inc\xmc_usic.h ****  * Calculates the current used MCLK frequency of a USIC channel. \n\n
 733:D:/Users/Beheerder/Desktop/GPSBox/SensorMaritime-SensorBox/Sensorbox_firmware/GPSGyroAnalysisTool/GpsGyroAnalysisTool/GpsGyroAnalysisTool/Libraries/XMCLib/inc\xmc_usic.h ****  * @image html ../images/usic_brg.png	 
 734:D:/Users/Beheerder/Desktop/GPSBox/SensorMaritime-SensorBox/Sensorbox_firmware/GPSGyroAnalysisTool/GpsGyroAnalysisTool/GpsGyroAnalysisTool/Libraries/XMCLib/inc\xmc_usic.h ****  * @image latex ../images/usic_brg.png	 
 735:D:/Users/Beheerder/Desktop/GPSBox/SensorMaritime-SensorBox/Sensorbox_firmware/GPSGyroAnalysisTool/GpsGyroAnalysisTool/GpsGyroAnalysisTool/Libraries/XMCLib/inc\xmc_usic.h ****  *
 736:D:/Users/Beheerder/Desktop/GPSBox/SensorMaritime-SensorBox/Sensorbox_firmware/GPSGyroAnalysisTool/GpsGyroAnalysisTool/GpsGyroAnalysisTool/Libraries/XMCLib/inc\xmc_usic.h ****  * \par<b>Related APIs:</b><BR>
 737:D:/Users/Beheerder/Desktop/GPSBox/SensorMaritime-SensorBox/Sensorbox_firmware/GPSGyroAnalysisTool/GpsGyroAnalysisTool/GpsGyroAnalysisTool/Libraries/XMCLib/inc\xmc_usic.h ****  * XMC_USIC_CH_SetBaudrateMode(), XMC_USIC_CH_SetBaudrate(), XMC_USIC_CH_SetBaudrateEx() \n\n\n
 738:D:/Users/Beheerder/Desktop/GPSBox/SensorMaritime-SensorBox/Sensorbox_firmware/GPSGyroAnalysisTool/GpsGyroAnalysisTool/GpsGyroAnalysisTool/Libraries/XMCLib/inc\xmc_usic.h ****  */
 739:D:/Users/Beheerder/Desktop/GPSBox/SensorMaritime-SensorBox/Sensorbox_firmware/GPSGyroAnalysisTool/GpsGyroAnalysisTool/GpsGyroAnalysisTool/Libraries/XMCLib/inc\xmc_usic.h **** uint32_t XMC_USIC_CH_GetMCLKFrequency(XMC_USIC_CH_t *const channel);
 740:D:/Users/Beheerder/Desktop/GPSBox/SensorMaritime-SensorBox/Sensorbox_firmware/GPSGyroAnalysisTool/GpsGyroAnalysisTool/GpsGyroAnalysisTool/Libraries/XMCLib/inc\xmc_usic.h **** 
 741:D:/Users/Beheerder/Desktop/GPSBox/SensorMaritime-SensorBox/Sensorbox_firmware/GPSGyroAnalysisTool/GpsGyroAnalysisTool/GpsGyroAnalysisTool/Libraries/XMCLib/inc\xmc_usic.h **** /**
 742:D:/Users/Beheerder/Desktop/GPSBox/SensorMaritime-SensorBox/Sensorbox_firmware/GPSGyroAnalysisTool/GpsGyroAnalysisTool/GpsGyroAnalysisTool/Libraries/XMCLib/inc\xmc_usic.h ****  * @param  channel Pointer to USIC channel handler of type @ref XMC_USIC_CH_t \n
 743:D:/Users/Beheerder/Desktop/GPSBox/SensorMaritime-SensorBox/Sensorbox_firmware/GPSGyroAnalysisTool/GpsGyroAnalysisTool/GpsGyroAnalysisTool/Libraries/XMCLib/inc\xmc_usic.h ****  * 				   \b Range: @ref XMC_USIC0_CH0, @ref XMC_USIC0_CH1 to @ref XMC_USIC2_CH1 based on device su
 744:D:/Users/Beheerder/Desktop/GPSBox/SensorMaritime-SensorBox/Sensorbox_firmware/GPSGyroAnalysisTool/GpsGyroAnalysisTool/GpsGyroAnalysisTool/Libraries/XMCLib/inc\xmc_usic.h ****  * @param  pdiv Desired divider for the external frequency input. \b Range: minimum value = 1, maxi
 745:D:/Users/Beheerder/Desktop/GPSBox/SensorMaritime-SensorBox/Sensorbox_firmware/GPSGyroAnalysisTool/GpsGyroAnalysisTool/GpsGyroAnalysisTool/Libraries/XMCLib/inc\xmc_usic.h ****  * @param  oversampling Required oversampling. The value indicates the number of time quanta for on
 746:D:/Users/Beheerder/Desktop/GPSBox/SensorMaritime-SensorBox/Sensorbox_firmware/GPSGyroAnalysisTool/GpsGyroAnalysisTool/GpsGyroAnalysisTool/Libraries/XMCLib/inc\xmc_usic.h ****  * 						This can be related to the number of samples for each logic state of the data signal. \n
 747:D:/Users/Beheerder/Desktop/GPSBox/SensorMaritime-SensorBox/Sensorbox_firmware/GPSGyroAnalysisTool/GpsGyroAnalysisTool/GpsGyroAnalysisTool/Libraries/XMCLib/inc\xmc_usic.h ****  * 						\b Range: 1 to 32. Value should be chosen based on the protocol used.
 748:D:/Users/Beheerder/Desktop/GPSBox/SensorMaritime-SensorBox/Sensorbox_firmware/GPSGyroAnalysisTool/GpsGyroAnalysisTool/GpsGyroAnalysisTool/Libraries/XMCLib/inc\xmc_usic.h ****  * @param  combination_mode Selects which edge of the synchronized(and optionally filtered) signal 
 749:D:/Users/Beheerder/Desktop/GPSBox/SensorMaritime-SensorBox/Sensorbox_firmware/GPSGyroAnalysisTool/GpsGyroAnalysisTool/GpsGyroAnalysisTool/Libraries/XMCLib/inc\xmc_usic.h ****  *                          output DXnT of the input stage.
 750:D:/Users/Beheerder/Desktop/GPSBox/SensorMaritime-SensorBox/Sensorbox_firmware/GPSGyroAnalysisTool/GpsGyroAnalysisTool/GpsGyroAnalysisTool/Libraries/XMCLib/inc\xmc_usic.h ****  *
 751:D:/Users/Beheerder/Desktop/GPSBox/SensorMaritime-SensorBox/Sensorbox_firmware/GPSGyroAnalysisTool/GpsGyroAnalysisTool/GpsGyroAnalysisTool/Libraries/XMCLib/inc\xmc_usic.h ****  * @return None
 752:D:/Users/Beheerder/Desktop/GPSBox/SensorMaritime-SensorBox/Sensorbox_firmware/GPSGyroAnalysisTool/GpsGyroAnalysisTool/GpsGyroAnalysisTool/Libraries/XMCLib/inc\xmc_usic.h ****  *
 753:D:/Users/Beheerder/Desktop/GPSBox/SensorMaritime-SensorBox/Sensorbox_firmware/GPSGyroAnalysisTool/GpsGyroAnalysisTool/GpsGyroAnalysisTool/Libraries/XMCLib/inc\xmc_usic.h ****  * \par<b>Description</b><br>
 754:D:/Users/Beheerder/Desktop/GPSBox/SensorMaritime-SensorBox/Sensorbox_firmware/GPSGyroAnalysisTool/GpsGyroAnalysisTool/GpsGyroAnalysisTool/Libraries/XMCLib/inc\xmc_usic.h ****  * Enables the external frequency input for the Baudrate Generator and configures the divider, over
 755:D:/Users/Beheerder/Desktop/GPSBox/SensorMaritime-SensorBox/Sensorbox_firmware/GPSGyroAnalysisTool/GpsGyroAnalysisTool/GpsGyroAnalysisTool/Libraries/XMCLib/inc\xmc_usic.h ****  * the combination mode of the USIC channel. \n\n
 756:D:/Users/Beheerder/Desktop/GPSBox/SensorMaritime-SensorBox/Sensorbox_firmware/GPSGyroAnalysisTool/GpsGyroAnalysisTool/GpsGyroAnalysisTool/Libraries/XMCLib/inc\xmc_usic.h ****  *
 757:D:/Users/Beheerder/Desktop/GPSBox/SensorMaritime-SensorBox/Sensorbox_firmware/GPSGyroAnalysisTool/GpsGyroAnalysisTool/GpsGyroAnalysisTool/Libraries/XMCLib/inc\xmc_usic.h ****  * \par<b>Related APIs:</b><BR>
 758:D:/Users/Beheerder/Desktop/GPSBox/SensorMaritime-SensorBox/Sensorbox_firmware/GPSGyroAnalysisTool/GpsGyroAnalysisTool/GpsGyroAnalysisTool/Libraries/XMCLib/inc\xmc_usic.h ****  * XMC_USIC_CH_SetBRGInputClockSource(), XMC_USIC_CH_SetInputTriggerCombinationMode() \n\n\n
 759:D:/Users/Beheerder/Desktop/GPSBox/SensorMaritime-SensorBox/Sensorbox_firmware/GPSGyroAnalysisTool/GpsGyroAnalysisTool/GpsGyroAnalysisTool/Libraries/XMCLib/inc\xmc_usic.h ****  */
 760:D:/Users/Beheerder/Desktop/GPSBox/SensorMaritime-SensorBox/Sensorbox_firmware/GPSGyroAnalysisTool/GpsGyroAnalysisTool/GpsGyroAnalysisTool/Libraries/XMCLib/inc\xmc_usic.h **** void XMC_USIC_CH_ConfigExternalInputSignalToBRG(XMC_USIC_CH_t *const channel,
 761:D:/Users/Beheerder/Desktop/GPSBox/SensorMaritime-SensorBox/Sensorbox_firmware/GPSGyroAnalysisTool/GpsGyroAnalysisTool/GpsGyroAnalysisTool/Libraries/XMCLib/inc\xmc_usic.h **** 		                                         const uint16_t pdiv,
 762:D:/Users/Beheerder/Desktop/GPSBox/SensorMaritime-SensorBox/Sensorbox_firmware/GPSGyroAnalysisTool/GpsGyroAnalysisTool/GpsGyroAnalysisTool/Libraries/XMCLib/inc\xmc_usic.h **** 												 const uint32_t oversampling,
 763:D:/Users/Beheerder/Desktop/GPSBox/SensorMaritime-SensorBox/Sensorbox_firmware/GPSGyroAnalysisTool/GpsGyroAnalysisTool/GpsGyroAnalysisTool/Libraries/XMCLib/inc\xmc_usic.h **** 												 const XMC_USIC_CH_INPUT_COMBINATION_MODE_t combination_mode);
 764:D:/Users/Beheerder/Desktop/GPSBox/SensorMaritime-SensorBox/Sensorbox_firmware/GPSGyroAnalysisTool/GpsGyroAnalysisTool/GpsGyroAnalysisTool/Libraries/XMCLib/inc\xmc_usic.h **** 
 765:D:/Users/Beheerder/Desktop/GPSBox/SensorMaritime-SensorBox/Sensorbox_firmware/GPSGyroAnalysisTool/GpsGyroAnalysisTool/GpsGyroAnalysisTool/Libraries/XMCLib/inc\xmc_usic.h **** /**
 766:D:/Users/Beheerder/Desktop/GPSBox/SensorMaritime-SensorBox/Sensorbox_firmware/GPSGyroAnalysisTool/GpsGyroAnalysisTool/GpsGyroAnalysisTool/Libraries/XMCLib/inc\xmc_usic.h ****  * @param  channel Pointer to USIC channel handler of type @ref XMC_USIC_CH_t \n
 767:D:/Users/Beheerder/Desktop/GPSBox/SensorMaritime-SensorBox/Sensorbox_firmware/GPSGyroAnalysisTool/GpsGyroAnalysisTool/GpsGyroAnalysisTool/Libraries/XMCLib/inc\xmc_usic.h ****  * 				   \b Range: @ref XMC_USIC0_CH0, @ref XMC_USIC0_CH1 to @ref XMC_USIC2_CH1 based on device su
 768:D:/Users/Beheerder/Desktop/GPSBox/SensorMaritime-SensorBox/Sensorbox_firmware/GPSGyroAnalysisTool/GpsGyroAnalysisTool/GpsGyroAnalysisTool/Libraries/XMCLib/inc\xmc_usic.h ****  * @param  input USIC channel input stage of type @ref XMC_USIC_CH_INPUT_t. \n
 769:D:/Users/Beheerder/Desktop/GPSBox/SensorMaritime-SensorBox/Sensorbox_firmware/GPSGyroAnalysisTool/GpsGyroAnalysisTool/GpsGyroAnalysisTool/Libraries/XMCLib/inc\xmc_usic.h ****  * 				 \b Range: @ref XMC_USIC_CH_INPUT_DX0 to @ref XMC_USIC_CH_INPUT_DX5
 770:D:/Users/Beheerder/Desktop/GPSBox/SensorMaritime-SensorBox/Sensorbox_firmware/GPSGyroAnalysisTool/GpsGyroAnalysisTool/GpsGyroAnalysisTool/Libraries/XMCLib/inc\xmc_usic.h ****  * @param  source Input source select for the input stage. The table below maps the enum value with
 771:D:/Users/Beheerder/Desktop/GPSBox/SensorMaritime-SensorBox/Sensorbox_firmware/GPSGyroAnalysisTool/GpsGyroAnalysisTool/GpsGyroAnalysisTool/Libraries/XMCLib/inc\xmc_usic.h ****  * <table><tr><td>0</td><td>DXnA</td></tr><tr><td>1</td><td>DXnB</td></tr><tr><td>2</td><td>DXnC</t
 772:D:/Users/Beheerder/Desktop/GPSBox/SensorMaritime-SensorBox/Sensorbox_firmware/GPSGyroAnalysisTool/GpsGyroAnalysisTool/GpsGyroAnalysisTool/Libraries/XMCLib/inc\xmc_usic.h ****  * <tr><td>4</td><td>DXnE</td></tr><tr><td>5</td><td>DXnF</td></tr><tr><td>6</td><td>DXnG</td></tr>
 773:D:/Users/Beheerder/Desktop/GPSBox/SensorMaritime-SensorBox/Sensorbox_firmware/GPSGyroAnalysisTool/GpsGyroAnalysisTool/GpsGyroAnalysisTool/Libraries/XMCLib/inc\xmc_usic.h ****  * </tr></table>
 774:D:/Users/Beheerder/Desktop/GPSBox/SensorMaritime-SensorBox/Sensorbox_firmware/GPSGyroAnalysisTool/GpsGyroAnalysisTool/GpsGyroAnalysisTool/Libraries/XMCLib/inc\xmc_usic.h ****  * @return None
 775:D:/Users/Beheerder/Desktop/GPSBox/SensorMaritime-SensorBox/Sensorbox_firmware/GPSGyroAnalysisTool/GpsGyroAnalysisTool/GpsGyroAnalysisTool/Libraries/XMCLib/inc\xmc_usic.h ****  *
 776:D:/Users/Beheerder/Desktop/GPSBox/SensorMaritime-SensorBox/Sensorbox_firmware/GPSGyroAnalysisTool/GpsGyroAnalysisTool/GpsGyroAnalysisTool/Libraries/XMCLib/inc\xmc_usic.h ****  * \par<b>Description</b><br>
 777:D:/Users/Beheerder/Desktop/GPSBox/SensorMaritime-SensorBox/Sensorbox_firmware/GPSGyroAnalysisTool/GpsGyroAnalysisTool/GpsGyroAnalysisTool/Libraries/XMCLib/inc\xmc_usic.h ****  * Selects the data source for USIC input stage.\n\n
 778:D:/Users/Beheerder/Desktop/GPSBox/SensorMaritime-SensorBox/Sensorbox_firmware/GPSGyroAnalysisTool/GpsGyroAnalysisTool/GpsGyroAnalysisTool/Libraries/XMCLib/inc\xmc_usic.h ****  * Selects the input data signal source among DXnA, DXnB.. DXnG for the input stage. The API can be
 779:D:/Users/Beheerder/Desktop/GPSBox/SensorMaritime-SensorBox/Sensorbox_firmware/GPSGyroAnalysisTool/GpsGyroAnalysisTool/GpsGyroAnalysisTool/Libraries/XMCLib/inc\xmc_usic.h ****  * like DX0CR, DX1CR etc. 
 780:D:/Users/Beheerder/Desktop/GPSBox/SensorMaritime-SensorBox/Sensorbox_firmware/GPSGyroAnalysisTool/GpsGyroAnalysisTool/GpsGyroAnalysisTool/Libraries/XMCLib/inc\xmc_usic.h ****  *  
 781:D:/Users/Beheerder/Desktop/GPSBox/SensorMaritime-SensorBox/Sensorbox_firmware/GPSGyroAnalysisTool/GpsGyroAnalysisTool/GpsGyroAnalysisTool/Libraries/XMCLib/inc\xmc_usic.h ****  * \par<b>Related APIs:</b><BR>
 782:D:/Users/Beheerder/Desktop/GPSBox/SensorMaritime-SensorBox/Sensorbox_firmware/GPSGyroAnalysisTool/GpsGyroAnalysisTool/GpsGyroAnalysisTool/Libraries/XMCLib/inc\xmc_usic.h ****  * XMC_USIC_CH_EnableInputInversion(), XMC_USIC_CH_EnableInputDigitalFilter(), XMC_USIC_CH_EnableIn
 783:D:/Users/Beheerder/Desktop/GPSBox/SensorMaritime-SensorBox/Sensorbox_firmware/GPSGyroAnalysisTool/GpsGyroAnalysisTool/GpsGyroAnalysisTool/Libraries/XMCLib/inc\xmc_usic.h ****  * XMC_USIC_CH_SetInputSamplingFreq()\n\n\n
 784:D:/Users/Beheerder/Desktop/GPSBox/SensorMaritime-SensorBox/Sensorbox_firmware/GPSGyroAnalysisTool/GpsGyroAnalysisTool/GpsGyroAnalysisTool/Libraries/XMCLib/inc\xmc_usic.h ****  */
 785:D:/Users/Beheerder/Desktop/GPSBox/SensorMaritime-SensorBox/Sensorbox_firmware/GPSGyroAnalysisTool/GpsGyroAnalysisTool/GpsGyroAnalysisTool/Libraries/XMCLib/inc\xmc_usic.h **** __STATIC_INLINE void XMC_USIC_CH_SetInputSource(XMC_USIC_CH_t *const channel, const XMC_USIC_CH_INP
 786:D:/Users/Beheerder/Desktop/GPSBox/SensorMaritime-SensorBox/Sensorbox_firmware/GPSGyroAnalysisTool/GpsGyroAnalysisTool/GpsGyroAnalysisTool/Libraries/XMCLib/inc\xmc_usic.h **** {
 787:D:/Users/Beheerder/Desktop/GPSBox/SensorMaritime-SensorBox/Sensorbox_firmware/GPSGyroAnalysisTool/GpsGyroAnalysisTool/GpsGyroAnalysisTool/Libraries/XMCLib/inc\xmc_usic.h ****   channel->DXCR[input] = (uint32_t)((channel->DXCR[input] & (uint32_t)(~USIC_CH_DXCR_DSEL_Msk)) |
 788:D:/Users/Beheerder/Desktop/GPSBox/SensorMaritime-SensorBox/Sensorbox_firmware/GPSGyroAnalysisTool/GpsGyroAnalysisTool/GpsGyroAnalysisTool/Libraries/XMCLib/inc\xmc_usic.h ****                          ((uint32_t)source << USIC_CH_DXCR_DSEL_Pos));
 789:D:/Users/Beheerder/Desktop/GPSBox/SensorMaritime-SensorBox/Sensorbox_firmware/GPSGyroAnalysisTool/GpsGyroAnalysisTool/GpsGyroAnalysisTool/Libraries/XMCLib/inc\xmc_usic.h **** }
 790:D:/Users/Beheerder/Desktop/GPSBox/SensorMaritime-SensorBox/Sensorbox_firmware/GPSGyroAnalysisTool/GpsGyroAnalysisTool/GpsGyroAnalysisTool/Libraries/XMCLib/inc\xmc_usic.h **** /**
 791:D:/Users/Beheerder/Desktop/GPSBox/SensorMaritime-SensorBox/Sensorbox_firmware/GPSGyroAnalysisTool/GpsGyroAnalysisTool/GpsGyroAnalysisTool/Libraries/XMCLib/inc\xmc_usic.h ****  * @param  channel Pointer to USIC channel handler of type @ref XMC_USIC_CH_t \n
 792:D:/Users/Beheerder/Desktop/GPSBox/SensorMaritime-SensorBox/Sensorbox_firmware/GPSGyroAnalysisTool/GpsGyroAnalysisTool/GpsGyroAnalysisTool/Libraries/XMCLib/inc\xmc_usic.h ****  * 				   \b Range: @ref XMC_USIC0_CH0, @ref XMC_USIC0_CH1 to @ref XMC_USIC2_CH1 based on device su
 793:D:/Users/Beheerder/Desktop/GPSBox/SensorMaritime-SensorBox/Sensorbox_firmware/GPSGyroAnalysisTool/GpsGyroAnalysisTool/GpsGyroAnalysisTool/Libraries/XMCLib/inc\xmc_usic.h ****  * @param  input USIC channel input stage of type @ref XMC_USIC_CH_INPUT_t. \n
 794:D:/Users/Beheerder/Desktop/GPSBox/SensorMaritime-SensorBox/Sensorbox_firmware/GPSGyroAnalysisTool/GpsGyroAnalysisTool/GpsGyroAnalysisTool/Libraries/XMCLib/inc\xmc_usic.h ****  * 				 \b Range: @ref XMC_USIC_CH_INPUT_DX0 to @ref XMC_USIC_CH_INPUT_DX5
 795:D:/Users/Beheerder/Desktop/GPSBox/SensorMaritime-SensorBox/Sensorbox_firmware/GPSGyroAnalysisTool/GpsGyroAnalysisTool/GpsGyroAnalysisTool/Libraries/XMCLib/inc\xmc_usic.h ****  * @return None
 796:D:/Users/Beheerder/Desktop/GPSBox/SensorMaritime-SensorBox/Sensorbox_firmware/GPSGyroAnalysisTool/GpsGyroAnalysisTool/GpsGyroAnalysisTool/Libraries/XMCLib/inc\xmc_usic.h ****  *
 797:D:/Users/Beheerder/Desktop/GPSBox/SensorMaritime-SensorBox/Sensorbox_firmware/GPSGyroAnalysisTool/GpsGyroAnalysisTool/GpsGyroAnalysisTool/Libraries/XMCLib/inc\xmc_usic.h ****  * \par<b>Description</b><br>
 798:D:/Users/Beheerder/Desktop/GPSBox/SensorMaritime-SensorBox/Sensorbox_firmware/GPSGyroAnalysisTool/GpsGyroAnalysisTool/GpsGyroAnalysisTool/Libraries/XMCLib/inc\xmc_usic.h ****  * The input of the data shift unit is controlled by the
 799:D:/Users/Beheerder/Desktop/GPSBox/SensorMaritime-SensorBox/Sensorbox_firmware/GPSGyroAnalysisTool/GpsGyroAnalysisTool/GpsGyroAnalysisTool/Libraries/XMCLib/inc\xmc_usic.h ****  * protocol pre-processor. \n\n
 800:D:/Users/Beheerder/Desktop/GPSBox/SensorMaritime-SensorBox/Sensorbox_firmware/GPSGyroAnalysisTool/GpsGyroAnalysisTool/GpsGyroAnalysisTool/Libraries/XMCLib/inc\xmc_usic.h ****  *
 801:D:/Users/Beheerder/Desktop/GPSBox/SensorMaritime-SensorBox/Sensorbox_firmware/GPSGyroAnalysisTool/GpsGyroAnalysisTool/GpsGyroAnalysisTool/Libraries/XMCLib/inc\xmc_usic.h ****  * \par<b>Related APIs:</b><BR>
 802:D:/Users/Beheerder/Desktop/GPSBox/SensorMaritime-SensorBox/Sensorbox_firmware/GPSGyroAnalysisTool/GpsGyroAnalysisTool/GpsGyroAnalysisTool/Libraries/XMCLib/inc\xmc_usic.h ****  * XMC_USIC_CH_ConnectInputDataShiftToDataInput()\n\n\n
 803:D:/Users/Beheerder/Desktop/GPSBox/SensorMaritime-SensorBox/Sensorbox_firmware/GPSGyroAnalysisTool/GpsGyroAnalysisTool/GpsGyroAnalysisTool/Libraries/XMCLib/inc\xmc_usic.h ****  */
 804:D:/Users/Beheerder/Desktop/GPSBox/SensorMaritime-SensorBox/Sensorbox_firmware/GPSGyroAnalysisTool/GpsGyroAnalysisTool/GpsGyroAnalysisTool/Libraries/XMCLib/inc\xmc_usic.h **** __STATIC_INLINE void XMC_USIC_CH_ConnectInputDataShiftToPPP(XMC_USIC_CH_t *const channel, const XMC
 805:D:/Users/Beheerder/Desktop/GPSBox/SensorMaritime-SensorBox/Sensorbox_firmware/GPSGyroAnalysisTool/GpsGyroAnalysisTool/GpsGyroAnalysisTool/Libraries/XMCLib/inc\xmc_usic.h **** {
 806:D:/Users/Beheerder/Desktop/GPSBox/SensorMaritime-SensorBox/Sensorbox_firmware/GPSGyroAnalysisTool/GpsGyroAnalysisTool/GpsGyroAnalysisTool/Libraries/XMCLib/inc\xmc_usic.h ****   channel->DXCR[input] &=(uint32_t)~USIC_CH_DXCR_INSW_Msk;
 807:D:/Users/Beheerder/Desktop/GPSBox/SensorMaritime-SensorBox/Sensorbox_firmware/GPSGyroAnalysisTool/GpsGyroAnalysisTool/GpsGyroAnalysisTool/Libraries/XMCLib/inc\xmc_usic.h **** }
 808:D:/Users/Beheerder/Desktop/GPSBox/SensorMaritime-SensorBox/Sensorbox_firmware/GPSGyroAnalysisTool/GpsGyroAnalysisTool/GpsGyroAnalysisTool/Libraries/XMCLib/inc\xmc_usic.h **** 
 809:D:/Users/Beheerder/Desktop/GPSBox/SensorMaritime-SensorBox/Sensorbox_firmware/GPSGyroAnalysisTool/GpsGyroAnalysisTool/GpsGyroAnalysisTool/Libraries/XMCLib/inc\xmc_usic.h **** /**
 810:D:/Users/Beheerder/Desktop/GPSBox/SensorMaritime-SensorBox/Sensorbox_firmware/GPSGyroAnalysisTool/GpsGyroAnalysisTool/GpsGyroAnalysisTool/Libraries/XMCLib/inc\xmc_usic.h ****  * @param  channel Pointer to USIC channel handler of type @ref XMC_USIC_CH_t \n
 811:D:/Users/Beheerder/Desktop/GPSBox/SensorMaritime-SensorBox/Sensorbox_firmware/GPSGyroAnalysisTool/GpsGyroAnalysisTool/GpsGyroAnalysisTool/Libraries/XMCLib/inc\xmc_usic.h ****  * 				   \b Range: @ref XMC_USIC0_CH0, @ref XMC_USIC0_CH1 to @ref XMC_USIC2_CH1 based on device su
 812:D:/Users/Beheerder/Desktop/GPSBox/SensorMaritime-SensorBox/Sensorbox_firmware/GPSGyroAnalysisTool/GpsGyroAnalysisTool/GpsGyroAnalysisTool/Libraries/XMCLib/inc\xmc_usic.h ****  * @param  input USIC channel input stage of type @ref XMC_USIC_CH_INPUT_t. \n
 813:D:/Users/Beheerder/Desktop/GPSBox/SensorMaritime-SensorBox/Sensorbox_firmware/GPSGyroAnalysisTool/GpsGyroAnalysisTool/GpsGyroAnalysisTool/Libraries/XMCLib/inc\xmc_usic.h ****  * 				 \b Range: @ref XMC_USIC_CH_INPUT_DX0 to @ref XMC_USIC_CH_INPUT_DX5
 814:D:/Users/Beheerder/Desktop/GPSBox/SensorMaritime-SensorBox/Sensorbox_firmware/GPSGyroAnalysisTool/GpsGyroAnalysisTool/GpsGyroAnalysisTool/Libraries/XMCLib/inc\xmc_usic.h ****  * @return None
 815:D:/Users/Beheerder/Desktop/GPSBox/SensorMaritime-SensorBox/Sensorbox_firmware/GPSGyroAnalysisTool/GpsGyroAnalysisTool/GpsGyroAnalysisTool/Libraries/XMCLib/inc\xmc_usic.h ****  *
 816:D:/Users/Beheerder/Desktop/GPSBox/SensorMaritime-SensorBox/Sensorbox_firmware/GPSGyroAnalysisTool/GpsGyroAnalysisTool/GpsGyroAnalysisTool/Libraries/XMCLib/inc\xmc_usic.h ****  * \par<b>Description</b><br>
 817:D:/Users/Beheerder/Desktop/GPSBox/SensorMaritime-SensorBox/Sensorbox_firmware/GPSGyroAnalysisTool/GpsGyroAnalysisTool/GpsGyroAnalysisTool/Libraries/XMCLib/inc\xmc_usic.h ****  * The input of the data shift unit is connected to
 818:D:/Users/Beheerder/Desktop/GPSBox/SensorMaritime-SensorBox/Sensorbox_firmware/GPSGyroAnalysisTool/GpsGyroAnalysisTool/GpsGyroAnalysisTool/Libraries/XMCLib/inc\xmc_usic.h ****  * the selected data input line. \n\n
 819:D:/Users/Beheerder/Desktop/GPSBox/SensorMaritime-SensorBox/Sensorbox_firmware/GPSGyroAnalysisTool/GpsGyroAnalysisTool/GpsGyroAnalysisTool/Libraries/XMCLib/inc\xmc_usic.h ****  *
